ccopy_reg
_reconstructor
p0
(csklearn.model_selection._search
GridSearchCV
p1
c__builtin__
object
p2
Ntp3
Rp4
(dp5
S'scoring'
p6
NsS'cv_results_'
p7
(dp8
S'std_train_score'
p9
cnumpy.core.multiarray
_reconstruct
p10
(cnumpy
ndarray
p11
(I0
tp12
S'b'
p13
tp14
Rp15
(I1
(I1
tp16
cnumpy
dtype
p17
(S'f8'
p18
I0
I1
tp19
Rp20
(I3
S'<'
p21
NNNI-1
I-1
I0
tp22
bI00
S'sN\xba\xe8\xe2r\x94?'
p23
tp24
bsS'rank_test_score'
p25
g10
(g11
(I0
tp26
g13
tp27
Rp28
(I1
(I1
tp29
g17
(S'i4'
p30
I0
I1
tp31
Rp32
(I3
S'<'
p33
NNNI-1
I-1
I0
tp34
bI00
S'\x01\x00\x00\x00'
p35
tp36
bsS'mean_score_time'
p37
g10
(g11
(I0
tp38
g13
tp39
Rp40
(I1
(I1
tp41
g20
I00
S'\x00\x00\x00\x00\x00\xb2A?'
p42
tp43
bsS'std_test_score'
p44
g10
(g11
(I0
tp45
g13
tp46
Rp47
(I1
(I1
tp48
g20
I00
S'\xd4\x8d\xe8\xd0w\xb4\x96?'
p49
tp50
bsS'split1_train_score'
p51
g10
(g11
(I0
tp52
g13
tp53
Rp54
(I1
(I1
tp55
g20
I00
S'\x13\xe9\x81\xca\xd9-\xec?'
p56
tp57
bsS'split0_test_score'
p58
g10
(g11
(I0
tp59
g13
tp60
Rp61
(I1
(I1
tp62
g20
I00
S'iiiiii\xe9?'
p63
tp64
bsS'mean_test_score'
p65
g10
(g11
(I0
tp66
g13
tp67
Rp68
(I1
(I1
tp69
g20
I00
S'\xb12|#\nL\xea?'
p70
tp71
bsS'split2_train_score'
p72
g10
(g11
(I0
tp73
g13
tp74
Rp75
(I1
(I1
tp76
g20
I00
S'\xd3\xd2\xd2\xd2\xd2\xd2\xea?'
p77
tp78
bsS'split0_train_score'
p79
g10
(g11
(I0
tp80
g13
tp81
Rp82
(I1
(I1
tp83
g20
I00
S'\x13\xe9\x81\xca\xd9-\xec?'
p84
tp85
bsS'params'
p86
((dp87
tp88
sS'std_fit_time'
p89
g10
(g11
(I0
tp90
g13
tp91
Rp92
(I1
(I1
tp93
g20
I00
S'\xbe\x8b\x89\xc5H\xa5B?'
p94
tp95
bsS'std_score_time'
p96
g10
(g11
(I0
tp97
g13
tp98
Rp99
(I1
(I1
tp100
g20
I00
S'_\x02+\x0f\x15\xfc\x1b?'
p101
tp102
bsS'split2_test_score'
p103
g10
(g11
(I0
tp104
g13
tp105
Rp106
(I1
(I1
tp107
g20
I00
S"'\x9bl\xb2\xc9&\xeb?"
p108
tp109
bsS'mean_train_score'
p110
g10
(g11
(I0
tp111
g13
tp112
Rp113
(I1
(I1
tp114
g20
I00
S'S\x8cG\xcd,\xba\xeb?'
p115
tp116
bsS'mean_fit_time'
p117
g10
(g11
(I0
tp118
g13
tp119
Rp120
(I1
(I1
tp121
g20
I00
S'\x00\x00\x00\x00\x00\x13U?'
p122
tp123
bsS'split1_test_score'
p124
g10
(g11
(I0
tp125
g13
tp126
Rp127
(I1
(I1
tp128
g20
I00
S'ZZZZZZ\xea?'
p129
tp130
bssS'n_jobs'
p131
I1
sS'verbose'
p132
I0
sS'iid'
p133
I01
sS'fit_params'
p134
(dp135
sS'param_grid'
p136
(dp137
sS'refit'
p138
I01
sS'cv'
p139
NsS'return_train_score'
p140
I01
sS'scorer_'
p141
csklearn.metrics.scorer
_passthrough_scorer
p142
sS'estimator'
p143
g0
(csklearn.naive_bayes
GaussianNB
p144
g2
Ntp145
Rp146
(dp147
S'priors'
p148
NsS'_sklearn_version'
p149
S'0.18.1'
p150
sbsg149
g150
sS'best_estimator_'
p151
g0
(g144
g2
Ntp152
Rp153
(dp154
S'class_prior_'
p155
g10
(g11
(I0
tp156
g13
tp157
Rp158
(I1
(I2
tp159
g20
I00
S'Q`\xd2\xa9y\x90\xeb?\xbc~\xb6X\x19\xbe\xc1?'
p160
tp161
bsg148
NsS'classes_'
p162
g10
(g11
(I0
tp163
g13
tp164
Rp165
(I1
(I2
tp166
g20
I00
S'\x00\x00\x00\x00\x00\x00\x00\x00\x00\x00\x00\x00\x00\x00\xf0?'
p167
tp168
bsS'theta_'
p169
g10
(g11
(I0
tp170
g13
tp171
Rp172
(I1
(I2
I7
tp173
g20
I00
S'\x83\xf7^-\xbd\xcd\xc2?d\xe4\x82U\x16s\xac?\xb6\x98\x19(|\xc1\xa3?\xbc\xd9\xfb\xca \r\xa5?\x99\x10M\xb2\xf5\xdc\xee?\x89\x0e\xbf9f\xa9\xac?\xdd\x85;\x11\xfe\xc9\x96?\xd1`4\x81\xff\x1e\xd5?\xc5<+i\xc5W\xce?\xda\x87\x95\x97\x96]\xcb?\xebS\xb6{\'s\xc9?J\xc6"/\x9e\xf3\xea?)\xab\x8f[\xc7\xfb\xc3?\xcf[\xc0W\x82\x93\xc0?'
p174
tp175
bsS'sigma_'
p176
g10
(g11
(I0
tp177
g13
tp178
Rp179
(I1
(I2
I7
tp180
g20
I00
S'\x99d=\xe6\xd4\xfb\x9a?R\x8f\x9b\x82D\x1c|?\x86\x0b\x1a\x0bY\xc7u?\x92\xb4?\x96\xbd\xdbw?\x8ar\x97S\x12\xe9\x8e?"S\xaeJyh\x91?\x08\xa4Z;\xa3pS?nO\xa7x\xef<\xb4?\x06NE\x92\xd3C\xb3?\xaf=-_j\xa4\xbc?\xde/\x19\x1fP\x16\xb6?\x14\xd0\xa3\x08Ug\xb3?\xb9U\x8d\xf14y\xa4?\x9a\xe0\xabn\x85>\xb0?'
p181
tp182
bsg149
g150
sS'class_count_'
p183
g10
(g11
(I0
tp184
g13
tp185
Rp186
(I1
(I2
tp187
g20
I00
S'\x00\x00\x00\x00\x00\xc0U@\x00\x00\x00\x00\x00\x00,@'
p188
tp189
bsbsS'error_score'
p190
S'raise'
p191
sS'pre_dispatch'
p192
S'2*n_jobs'
p193
sS'n_splits_'
p194
I3
sS'best_index_'
p195
cnumpy.core.multiarray
scalar
p196
(g17
(S'i8'
p197
I0
I1
tp198
Rp199
(I3
S'<'
p200
NNNI-1
I-1
I0
tp201
bS'\x00\x00\x00\x00\x00\x00\x00\x00'
p202
tp203
Rp204
sb.