(dp0
S'METTS MARK'
p1
(dp2
S'to_messages'
p3
F0.05327084295993135
sS'deferral_payments'
p4
F0.0
sS'expenses'
p5
F0.41221263928170204
sS'poi'
p6
F0.0
sS'financial'
p7
F0.010308064360583583
sS'long_term_incentive'
p8
F0.0
sS'email_address'
p9
S'mark.metts@enron.com'
p10
sS'from_poi_to_this_person'
p11
F0.07196969696969698
sS'deferred_income'
p12
F1.0
sS'restricted_stock_deferred'
p13
F0.0
sS'shared_receipt_with_poi'
p14
F0.12715087846404638
sS'loan_advances'
p15
F0.0
sS'from_messages'
p16
F0.00201837416481069
sS'other'
p17
F0.00016795806145122134
sS'director_fees'
p18
F0.0
sS'bonus'
p19
F0.075
sS'total_stock_value'
p20
F0.012799625895430116
sS'from_this_person_to_poi'
p21
F0.0016420361247947454
sS'restricted_stock'
p22
F0.1836645287185717
sS'salary'
p23
F0.329165684296536
sS'total_payments'
p24
F0.010253274646850635
sS'exercised_stock_options'
p25
F0.0
ssS'BAXTER JOHN C'
p26
(dp27
g3
F0.0
sg4
F1295738.0
sg5
F0.04895896626639798
sg6
F0.0
sg7
F0.10765280782040687
sg8
F0.3082451353957703
sg9
I0
sg11
F0.0
sg12
F0.6044799288662835
sg13
F0.0
sg14
F0.0
sg15
F0.0
sg16
F0.0
sg17
F0.25679272112233825
sg18
F0.0
sg19
F0.15
sg20
F0.21701822618471175
sg21
F0.0
sg22
F0.37700878903505797
sg23
F0.2403600244047737
sg24
F0.05440666533584129
sg25
F0.1944936914644951
ssS'ELLIOTT STEVEN'
p28
(dp29
g3
F0.0
sg4
F0.0
sg5
F0.34337720697840124
sg6
F0.0
sg7
F0.04717120305295774
sg8
F0.0
sg9
S'steven.elliott@enron.com'
p30
sg11
F0.0
sg12
F0.8856492977657142
sg13
F0.0
sg14
F0.0
sg15
F0.0
sg16
F0.0
sg17
F0.0012510945025685518
sg18
F0.0
sg19
F0.04375
sg20
F0.13677024478756847
sg21
F0.0
sg22
F0.2529560322521056
sg23
F0.15382656412822224
sg24
F0.002044471062239377
sg25
F0.14237479119832827
ssS'CORDES WILLIAM R'
p31
(dp32
g3
F0.050432371773714436
sg4
F0.0
sg5
F0.0
sg6
F0.0
sg7
F0.006871093459189362
sg8
F0.0
sg9
S'bill.cordes@enron.com'
p33
sg11
F0.01893939393939394
sg12
F1.0
sg13
F0.0
sg14
F0.01050534323492121
sg15
F0.0
sg16
F0.0008351893095768373
sg17
F0.0
sg18
F0.0
sg19
F0.0
sg20
F0.022018029761909728
sg21
F0.0
sg22
F0.1722211972417199
sg23
F0.0
sg24
F0.0
sg25
F0.018977603138476615
ssS'HANNON KEVIN P'
p34
(dp35
g3
F0.06898145092085287
sg4
F0.0
sg5
F0.1487959154233858
sg6
F1.0
sg7
F0.04871770388511123
sg8
F0.31426134316366705
sg9
S'kevin.hannon@enron.com'
p36
sg11
F0.06060606060606061
sg12
F0.11054004895579417
sg13
F0.0
sg14
F0.187466038761094
sg15
F0.0
sg16
F0.0022271714922048997
sg17
F0.0010955885042938864
sg18
F0.0
sg19
F0.1875
sg20
F0.13091784215016056
sg21
F0.034482758620689655
sg22
F0.19909693459426664
sg23
F0.2189347568251477
sg24
F0.002787587649967589
sg25
F0.1612303216360921
ssS'MORDAUNT KRISTINA M'
p37
(dp38
g3
F0.0
sg4
F0.0
sg5
F0.15307545363542183
sg6
F0.0
sg7
F0.005347617835658545
sg8
F0.0
sg9
S'kristina.mordaunt@enron.com'
p39
sg11
F0.0
sg12
F1.0
sg13
F0.0
sg14
F0.0
sg15
F0.0
sg16
F0.0
sg17
F0.0001362004739699272
sg18
F0.0
sg19
F0.040625
sg20
F0.005138994206615752
sg21
F0.0
sg22
F0.16198146927384854
sg23
F0.24035192547545214
sg24
F0.006069170107360102
sg25
F0.0
ssS'MEYER ROCKFORD G'
p40
(dp41
g3
F0.015314542214007526
sg4
F1848227.0
sg5
F0.0
sg6
F0.0
sg7
F0.01795074655818633
sg8
F0.0
sg9
S'rockford.meyer@enron.com'
p42
sg11
F0.0
sg12
F1.0
sg13
F0.0
sg14
F0.003984785364970114
sg15
F0.0
sg16
F0.0019487750556792872
sg17
F0.0
sg18
F0.0
sg19
F0.0
sg20
F0.020343461798999724
sg21
F0.0
sg22
F0.17660034006319408
sg23
F0.0
sg24
F0.017846955333330958
sg25
F0.014367167899369006
ssS'MCMAHON JEFFREY'
p43
(dp44
g3
F0.15545580566374018
sg4
F0.0
sg5
F0.599345173826187
sg6
F0.0
sg7
F0.0390227713675816
sg8
F0.13504439081329195
sg9
S'jeffrey.mcmahon@enron.com'
p45
sg11
F0.10984848484848485
sg12
F1.0
sg13
F0.0
sg14
F0.40355008150697336
sg15
F0.0
sg16
F0.0033407572383073493
sg17
F0.028702777842933923
sg18
F0.0
sg19
F0.325
sg20
F0.03472641212889136
sg21
F0.04269293924466338
sg22
F0.1821523369785786
sg23
F0.3333591299230242
sg24
F0.03958844336430838
sg25
F0.03214282220671575
ssS'HORTON STANLEY C'
p46
(dp47
g3
F0.1551257508746452
sg4
F3131860.0
sg5
F0.0
sg6
F0.0
sg7
F0.069368384173538
sg8
F0.0
sg9
S'stanley.horton@enron.com'
p48
sg11
F0.08333333333333334
sg12
F1.0
sg13
F0.0
sg14
F0.19452997645354103
sg15
F0.0
sg16
F0.07467984409799554
sg17
F0.0
sg18
F0.0
sg19
F0.0
sg20
F0.1485273955693404
sg21
F0.02463054187192118
sg22
F0.26779452526818787
sg23
F0.0
sg24
F0.030242045771566962
sg25
F0.15169764609595607
ssS'PIPER GREGORY F'
p49
(dp50
g3
F0.08172156577991947
sg4
F1130036.0
sg5
F0.18821662594038374
sg6
F0.0
sg7
F0.018301946700922816
sg8
F0.0
sg9
S'greg.piper@enron.com'
p51
sg11
F0.11553030303030304
sg12
F0.9904882053518077
sg13
F-409554.0
sg14
F0.13439594276399203
sg15
F0.0
sg16
F0.015451002227171492
sg17
F7.509848954543116e-05
sg18
F0.0
sg19
F0.049999999999999996
sg20
F0.01880578964499269
sg21
F0.07881773399014778
sg22
F0.17355822096552703
sg23
F0.1773584532124853
sg24
F0.016778992596093736
sg25
F0.025628279921407655
ssS'HUMPHREY GENE E'
p52
(dp53
g3
F0.008449402600831738
sg4
F2964506.0
sg5
F0.021830453351284956
sg6
F0.0
sg7
F0.036642236607947194
sg8
F0.0
sg9
S'gene.humphrey@enron.com'
p54
sg11
F0.01893939393939394
sg12
F1.0
sg13
F0.0
sg14
F0.021554066292338345
sg15
F0.0
sg16
F0.001183184855233853
sg17
F0.0
sg18
F0.0
sg19
F0.0
sg20
F0.04733801735767246
sg21
F0.027914614121510674
sg22
F0.1499748016029313
sg23
F0.1176360485143864
sg24
F0.029936560417806166
sg25
F0.0664592546770177
ssS'UMANOFF ADAM S'
p55
(dp56
g3
F0.007327216317908773
sg4
F0.0
sg5
F0.23221412553603513
sg6
F0.0
sg7
F0.007694459554857747
sg8
F0.0
sg9
S'adam.umanoff@enron.com'
p57
sg11
F0.022727272727272728
sg12
F1.0
sg13
F0.0
sg14
F0.007426190907444304
sg15
F0.0
sg16
F0.001252783964365256
sg17
F0.0
sg18
F0.0
sg19
F0.09859375
sg20
F0.0008970347602851445
sg21
F0.0
sg22
F0.1499748016029313
sg23
F0.2596957682194414
sg24
F0.010916022205645004
sg25
F0.0
ssS'BLACHMAN JEREMY M'
p58
(dp59
g3
F0.16337712060201995
sg4
F0.0
sg5
F0.3681014849429322
sg6
F0.0
sg7
F0.02026432019029306
sg8
F0.16165963842894499
sg9
S'jeremy.blachman@enron.com'
p60
sg11
F0.04734848484848485
sg12
F1.0
sg13
F0.0
sg14
F0.42130048904184025
sg15
F0.0
sg16
F0.0009743875278396436
sg17
F2.6255513054443797e-05
sg18
F0.0
sg19
F0.10625
sg20
F0.02031255902983289
sg21
F0.003284072249589491
sg22
F0.16086038245362366
sg23
F0.22366183190582203
sg24
F0.01945576503807805
sg25
F0.022280902647414214
ssS'SUNDE MARTIN'
p61
(dp62
g3
F0.1747310053468876
sg4
F0.0
sg5
F0.0
sg6
F0.0
sg7
F0.014193748532257779
sg8
F0.09259685383196053
sg9
S'marty.sunde@enron.com'
p63
sg11
F0.07007575757575758
sg12
F1.0
sg13
F0.0
sg14
F0.46458974823401555
sg15
F0.0
sg16
F0.0026447661469933183
sg17
F0.010726342358955528
sg18
F0.0
sg19
F0.0875
sg20
F0.015115970524658021
sg21
F0.02134646962233169
sg22
F0.19022083377672377
sg23
F0.2317067683652221
sg24
F0.014919487141114698
sg25
F0.0
ssS'GIBBS DANA R'
p64
(dp65
g3
F0.011155851871410655
sg4
F504610.0
sg5
F0.0
sg6
F0.0
sg7
F0.02262440903244735
sg8
F0.08977124184276779
sg9
S'dana.gibbs@enron.com'
p66
sg11
F0.0
sg12
F1.0
sg13
F0.0
sg14
F0.004165911972468755
sg15
F0.0
sg16
F0.0008351893095768373
sg17
F0.0
sg18
F0.0
sg19
F0.0
sg20
F0.04602596186598285
sg21
F0.0
sg22
F0.1499748016029313
sg23
F0.0
sg24
F0.009332985051447524
sg25
F0.06458164087137258
ssS'LOWRY CHARLES P'
p67
(dp68
g3
F0.0
sg4
F0.0
sg5
F0.0
sg6
F0.0
sg7
F0.002910959687349869
sg8
F0.0
sg9
I0
sg11
F0.0
sg12
F1.0
sg13
F-153686.0
sg14
F0.0
sg15
F0.0
sg16
F0.0
sg17
F0.0
sg18
F0.0
sg19
F0.0
sg20
F0.008469230413834057
sg21
F0.0
sg22
F0.15882452932665
sg23
F0.0
sg24
F0.0
sg25
F0.010836172088911081
ssS'COLWELL WESLEY'
p69
(dp70
g3
F0.11604726384579842
sg4
F27610.0
sg5
F0.07218824722529431
sg6
F1.0
sg7
F0.013994358128329963
sg8
F0.0
sg9
S'wes.colwell@enron.com'
p71
sg11
F0.4545454545454546
sg12
F0.9588909440912046
sg13
F0.0
sg14
F0.20503531968846223
sg15
F0.0
sg16
F0.0027839643652561247
sg17
F0.009820720213820265
sg18
F0.0
sg19
F0.15
sg20
F0.015102177188584873
sg21
F0.0180623973727422
sg22
F0.1901817923845561
sg23
F0.2596534738107622
sg24
F0.014391145026719008
sg25
F0.0
ssS'MULLER MARK S'
p72
(dp73
g3
F0.008977490263383722
sg4
F842924.0
sg5
F0.0
sg6
F0.0
sg7
F0.03137928287508616
sg8
F0.33535460759966995
sg9
S's..muller@enron.com'
p74
sg11
F0.022727272727272728
sg12
F0.7948285377238694
sg13
F0.0
sg14
F0.020648433254845135
sg15
F0.0
sg16
F0.0011135857461024498
sg17
F9.141165758293484e-05
sg18
F0.0
sg19
F0.13749999999999998
sg20
F0.029721607958763052
sg21
F0.0
sg22
F0.17073514826285383
sg23
F0.2264586621648618
sg24
F0.03092001159175743
sg25
F0.030753120729056713
ssS'JACKSON CHARLENE R'
p75
(dp76
g3
F0.017030827117301472
sg4
F0.0
sg5
F0.04450457460341052
sg6
F0.0
sg7
F0.007961387110899196
sg8
F0.0
sg9
S'charlene.jackson@enron.com'
p77
sg11
F0.04734848484848485
sg12
F1.0
sg13
F0.0
sg14
F0.02119181307734106
sg15
F0.0
sg16
F0.0038975501113585743
sg17
F0.0002350447584101862
sg18
F0.0
sg19
F0.03125
sg20
F0.015661499000766386
sg21
F0.031198686371100164
sg22
F0.18110841161190047
sg23
F0.25966787190733387
sg24
F0.005322277923054558
sg25
F0.005387822611974991
ssS'WESTFAHL RICHARD K'
p78
(dp79
g3
F0.0
sg4
F0.0
sg5
F0.22674121252125565
sg6
F0.0
sg7
F0.007030781986367269
sg8
F0.04978996912602514
sg9
S'dick.westfahl@enron.com'
p80
sg11
F0.0
sg12
F0.9969181477154628
sg13
F0.0
sg14
F0.0
sg15
F0.0
sg16
F0.0
sg17
F0.038720124821797944
sg18
F0.0
sg19
F0.0
sg20
F0.008728109767124341
sg21
F0.0
sg22
F0.1721402928818444
sg23
F0.05736201674138679
sg24
F0.00735937160476943
sg25
F0.0
ssS'WALTERS GARETH W'
p81
(dp82
g3
F0.0
sg4
F53625.0
sg5
F0.14768559600984427
sg6
F0.0
sg7
F0.008133516312612107
sg8
F0.0
sg9
I0
sg11
F0.0
sg12
F1.0
sg13
F0.0
sg14
F0.0
sg15
F0.0
sg16
F0.0
sg17
F0.0
sg18
F0.0
sg19
F0.0
sg20
F0.02185820609201201
sg21
F0.0
sg22
F0.1499748016029313
sg23
F0.0
sg24
F0.0008440534445641466
sg25
F0.02999643301996391
ssS'WALLS JR ROBERT H'
p83
(dp84
g3
F0.044293352696547626
sg4
F0.0
sg5
F0.22265838444153996
sg6
F0.0
sg7
F0.05247168644798164
sg8
F0.10509337016080665
sg9
S'rob.walls@enron.com'
p85
sg11
F0.032196969696969696
sg12
F1.0
sg13
F0.0
sg14
F0.03894222061220793
sg15
F0.0
sg16
F0.010161469933184855
sg17
F1.9305524304738086e-07
sg18
F0.0
sg19
F0.10625
sg20
F0.12090713522561494
sg21
F0.0
sg22
F0.23936997327680049
sg23
F0.3213394189288176
sg24
F0.01736948238202832
sg25
F0.1265428964576616
ssS'KITCHEN LOUISE'
p86
(dp87
g3
F0.548221004686778
sg4
F0.0
sg5
F0.025240095644837673
sg6
F0.0
sg7
F0.02704720326825859
sg8
F0.0
sg9
S'louise.kitchen@enron.com'
p88
sg11
F0.4753787878787879
sg12
F1.0
sg13
F0.0
sg14
F0.6645535229125158
sg15
F0.0
sg16
F0.12026726057906459
sg17
F0.009066356851612624
sg18
F0.0
sg19
F0.38749999999999996
sg20
F0.012028195938855322
sg21
F0.3185550082101806
sg22
F0.17681437672202482
sg23
F0.2442655080998292
sg24
F0.03351823038116733
sg25
F0.002359412308887661
ssS'CHAN RONNIE'
p89
(dp90
g3
F0.0
sg4
F0.0
sg5
F0.0
sg6
F0.0
sg7
F4.565511820445872e-05
sg8
F0.0
sg9
I0
sg11
F0.0
sg12
F0.9718113244374336
sg13
F-32460.0
sg14
F0.0
sg15
F0.0
sg16
F0.0
sg17
F0.0
sg18
F98784.0
sg19
F0.0
sg20
F0.0008970347602851445
sg21
F0.0
sg22
F0.15184395144033946
sg23
F0.0
sg24
F0.0
sg25
F0.0
ssS'BELFER ROBERT'
p91
(dp92
g3
F0.0
sg4
F-102500.0
sg5
F0.0
sg6
F0.0
sg7
F0.0004793870958999455
sg8
F0.0
sg9
I0
sg11
F0.0
sg12
F1.0
sg13
F44093.0
sg14
F0.0
sg15
F0.0
sg16
F0.0
sg17
F0.0
sg18
F3285.0
sg19
F0.0
sg20
F0.0
sg21
F0.0
sg22
F0.1499748016029313
sg23
F0.0
sg24
F0.0009897663661803573
sg25
F9.56376870597464e-05
ssS'SHANKMAN JEFFREY A'
p93
(dp94
g3
F0.21262129513499242
sg4
F0.0
sg5
F0.7823773949458611
sg6
F0.0
sg7
F0.03472336913785322
sg8
F0.10775028889691327
sg9
S'jeffrey.shankman@enron.com'
p95
sg11
F0.17803030303030304
sg12
F1.0
sg13
F0.0
sg14
F0.3133490309726499
sg15
F0.0
sg16
F0.18659521158129175
sg17
F0.0001149643972347153
sg18
F0.0
sg19
F0.25
sg20
F0.043050832858110864
sg21
F0.13628899835796388
sg22
F0.1862600902996306
sg23
F0.2736628217749613
sg24
F0.029342488160438867
sg25
F0.041978627000327
ssS'WODRASKA JOHN'
p96
(dp97
g3
F0.0
sg4
F0.0
sg5
F0.0
sg6
F0.0
sg7
F0.0012139167321593217
sg8
F0.0
sg9
S'john.wodraska@enron.com'
p98
sg11
F0.0
sg12
F1.0
sg13
F0.0
sg14
F0.0
sg15
F0.0
sg16
F0.0
sg17
F0.018299996071325802
sg18
F0.0
sg19
F0.0
sg20
F0.0008970347602851445
sg21
F0.0
sg22
F0.1499748016029313
sg23
F0.0
sg24
F0.0018306622146299577
sg25
F0.0
ssS'BERGSIEKER RICHARD P'
p99
(dp100
g3
F0.025282196844676218
sg4
F0.0
sg5
F0.258673824001259
sg6
F0.0
sg7
F0.007757674622029073
sg8
F0.0350310586045803
sg9
S'rick.bergsieker@enron.com'
p101
sg11
F0.007575757575757576
sg12
F0.8613700088974217
sg13
F0.0
sg14
F0.042202499547183484
sg15
F0.0
sg16
F0.004106347438752784
sg17
F0.0412477971190173
sg18
F0.0
sg19
F0.03125
sg20
F0.014308897611150843
sg21
F0.0
sg22
F0.1879364516695205
sg23
F0.16910744399590374
sg24
F0.005975774787421601
sg25
F0.0
ssS'URQUHART JOHN A'
p102
(dp103
g3
F0.0
sg4
F0.0
sg5
F0.999532267018705
sg6
F0.0
sg7
F0.0014686781309061342
sg8
F0.0
sg9
I0
sg11
F0.0
sg12
F0.9895371114939964
sg13
F0.0
sg14
F0.0
sg15
F0.0
sg16
F0.0
sg17
F0.0
sg18
F36666.0
sg19
F0.0
sg20
F0.0008970347602851445
sg21
F0.0
sg22
F0.1499748016029313
sg23
F0.0
sg24
F0.00220796115341791
sg25
F0.0
ssS'BIBI PHILIPPE A'
p104
(dp105
g3
F0.10607960921512971
sg4
F0.0
sg5
F0.1685543553808964
sg6
F0.0
sg7
F0.026588953905773757
sg8
F0.07185419150260212
sg9
S'philippe.bibi@enron.com'
p106
sg11
F0.043560606060606064
sg12
F1.0
sg13
F0.0
sg14
F0.2419851476181851
sg15
F0.0
sg16
F0.0027839643652561247
sg17
F0.04109065015117673
sg18
F0.0
sg19
F0.125
sg20
F0.038407910490444445
sg21
F0.013136288998357963
sg22
F0.17174596330431602
sg23
F0.1922370862571968
sg24
F0.01977208471245206
sg25
F0.04267257522217057
ssS'PIRO JIM'
p107
(dp108
g3
F0.0038286355535018814
sg4
F0.0
sg5
F0.0
sg6
F0.0
sg7
F0.0002546262258538226
sg8
F0.0
sg9
S'jim.piro@enron.com'
p109
sg11
F0.0
sg12
F1.0
sg13
F0.0
sg14
F0.0005433798224959246
sg15
F0.0
sg16
F0.0011135857461024498
sg17
F0.0
sg18
F0.0
sg19
F0.0
sg20
F0.0018593945974594915
sg21
F0.0016420361247947454
sg22
F0.15269871607947952
sg23
F0.0
sg24
F0.0
sg25
F0.0
ssS'RIEKER PAULA H'
p110
(dp111
g3
F0.08766255198362928
sg4
F214678.0
sg5
F0.1454387291651185
sg6
F1.0
sg7
F0.0209973971669754
sg8
F0.0
sg9
S'paula.rieker@enron.com'
p112
sg11
F0.06628787878787878
sg12
F0.9714643306987301
sg13
F0.0
sg14
F0.22785727223329108
sg15
F0.0
sg16
F0.005707126948775056
sg17
F0.00018822886197119635
sg18
F0.0
sg19
F0.0875
sg20
F0.03993516643785937
sg21
F0.07881773399014778
sg22
F0.16630821140672009
sg23
F0.22425125398422327
sg24
F0.010613192322622738
sg25
F0.04760742164755116
ssS'WHALEY DAVID A'
p113
(dp114
g3
F0.0
sg4
F0.0
sg5
F0.0
sg6
F0.0
sg7
F0.0007256448690802775
sg8
F0.0
sg9
I0
sg11
F0.0
sg12
F1.0
sg13
F0.0
sg14
F0.0
sg15
F0.0
sg16
F0.0
sg17
F0.0
sg18
F0.0
sg19
F0.0
sg20
F0.002905368905519737
sg21
F0.0
sg22
F0.1499748016029313
sg23
F0.0
sg24
F0.0
sg25
F0.002874021671587228
ssS'BECK SALLY W'
p115
(dp116
g3
F0.48287015644597003
sg4
F0.0
sg5
F0.16249131196915587
sg6
F0.0
sg7
F0.007285909172164762
sg8
F0.0
sg9
S'sally.beck@enron.com'
p117
sg11
F0.2727272727272727
sg12
F1.0
sg13
F0.0
sg14
F0.477993117188915
sg15
F0.0
sg16
F0.3022689309576837
sg17
F5.463463378240878e-05
sg18
F0.0
sg19
F0.0875
sg20
F0.00346094739345721
sg21
F0.6338259441707718
sg22
F0.15723183630900145
sg23
F0.2081694799947447
sg24
F0.009357569882357721
sg25
F0.0
ssS'HAUG DAVID L'
p118
(dp119
g3
F0.03782427883028583
sg4
F0.0
sg5
F0.0020763847300481284
sg6
F0.0
sg7
F0.01193823957660774
sg8
F0.0
sg9
S'david.haug@enron.com'
p120
sg11
F0.007575757575757576
sg12
F1.0
sg13
F0.0
sg14
F0.08531063213186017
sg15
F0.0
sg16
F0.0013223830734966592
sg17
F0.0
sg18
F0.0
sg19
F0.0
sg20
F0.04600610597216664
sg21
F0.011494252873563218
sg22
F0.277653916369883
sg23
F0.0
sg24
F4.5867221847382405e-06
sg25
F0.0
ssS'ECHOLS JOHN B'
p121
(dp122
g3
F0.0
sg4
F0.0
sg5
F0.09411486997460254
sg6
F0.0
sg7
F0.024606955871247962
sg8
F0.4343217695533555
sg9
S'john.echols@enron.com'
p123
sg11
F0.0
sg12
F1.0
sg13
F0.0
sg14
F0.0
sg15
F0.0
sg16
F0.0
sg17
F0.005190772847436453
sg18
F0.0
sg19
F0.024999999999999998
sg20
F0.02142308533694933
sg21
F0.0
sg22
F0.17344011787506108
sg23
F0.16399881935608113
sg24
F0.025997773093269894
sg25
F0.017509935838611795
ssS'MENDELSOHN JOHN'
p124
(dp125
g3
F0.0
sg4
F0.0
sg5
F0.000646957768520259
sg6
F0.0
sg7
F1.007935247945152e-05
sg8
F0.0
sg9
I0
sg11
F0.0
sg12
F0.9703942430999325
sg13
F0.0
sg14
F0.0
sg15
F0.0
sg16
F0.0
sg17
F0.0
sg18
F103750.0
sg19
F0.0
sg20
F0.0008970347602851445
sg21
F0.0
sg22
F0.1499748016029313
sg23
F0.0
sg24
F1.4291260701921256e-06
sg25
F0.0
ssS'HICKERSON GARY J'
p126
(dp127
g3
F0.0871344643210773
sg4
F0.0
sg5
F0.43210221932742626
sg6
F0.0
sg7
F0.016671033448595836
sg8
F0.013453286933619206
sg9
S'gary.hickerson@enron.com'
p128
sg11
F0.07575757575757576
sg12
F1.0
sg13
F0.0
sg14
F0.1630139467487774
sg15
F0.0
sg16
F0.0018791759465478842
sg17
F0.00018687747526986468
sg18
F0.0
sg19
F0.2125
sg20
F0.009870759492617627
sg21
F0.0016420361247947454
sg22
F0.17537450944893823
sg23
F0.19058400479456616
sg24
F0.020102357678524908
sg25
F0.0
ssS'CLINE KENNETH W'
p129
(dp130
g3
F0.0
sg4
F0.0
sg5
F0.0
sg6
F0.0
sg7
F0.001558231154940963
sg8
F0.0
sg9
I0
sg11
F0.0
sg12
F1.0
sg13
F-472568.0
sg14
F0.0
sg15
F0.0
sg16
F0.0
sg17
F0.0
sg18
F0.0
sg19
F0.0
sg20
F0.004752618043339598
sg21
F0.0
sg22
F0.18809981513497726
sg23
F0.0
sg24
F0.0
sg25
F0.0
ssS'LEWIS RICHARD'
p131
(dp132
g3
F0.06284243184368606
sg4
F0.0
sg5
F0.0
sg6
F0.0
sg7
F0.006251588218229735
sg8
F0.0
sg9
S'richard.lewis@enron.com'
p133
sg11
F0.01893939393939394
sg12
F1.0
sg13
F0.0
sg14
F0.1338525629414961
sg15
F0.0
sg16
F0.001809576837416481
sg17
F0.0
sg18
F0.0
sg19
F0.0
sg20
F0.01819926939669067
sg21
F0.0
sg22
F0.1499748016029313
sg23
F0.0
sg24
F0.0
sg25
F0.024760320601982324
ssS'HAYES ROBERT E'
p134
(dp135
g3
F0.03326952274077497
sg4
F7961.0
sg5
F0.0
sg6
F0.0
sg7
F0.0008660222193631606
sg8
F0.0
sg9
S'robert.hayes@enron.com'
p136
sg11
F0.030303030303030304
sg12
F1.0
sg13
F0.0
sg14
F0.009056330374932078
sg15
F0.0
sg16
F0.0008351893095768373
sg17
F0.0
sg18
F0.0
sg19
F0.0
sg20
F0.003977505794981264
sg21
F0.0
sg22
F0.15869393068736345
sg23
F0.0
sg24
F7.687346381621292e-05
sg25
F0.0
ssS'KOPPER MICHAEL J'
p137
(dp138
g3
F0.0
sg4
F0.0
sg5
F0.5164034393673802
sg6
F1.0
sg7
F0.02291350655211339
sg8
F0.11712734047312628
sg9
S'michael.kopper@enron.com'
p139
sg11
F0.0
sg12
F1.0
sg13
F0.0
sg14
F0.0
sg15
F0.0
sg16
F0.0
sg17
F0.08759900958799212
sg18
F0.0
sg19
F0.09999999999999999
sg20
F0.0209366769709126
sg21
F0.0
sg22
F0.2066960709387854
sg23
F0.20184781571876198
sg24
F0.025614303806111315
sg25
F0.0
ssS'LEFF DANIEL P'
p140
(dp141
g3
F0.18628292296521223
sg4
F0.0
sg5
F0.0
sg6
F0.0
sg7
F0.01995972071139128
sg8
F0.2696369246986746
sg9
S'dan.leff@enron.com'
p142
sg11
F0.1268939393939394
sg12
F1.0
sg13
F0.0
sg14
F0.4839702952363702
sg15
F0.0
sg16
F0.004384743875278397
sg17
F0.0002975946571575376
sg18
F0.0
sg19
F0.125
sg20
F0.008231671733412004
sg21
F0.022988505747126436
sg22
F0.17073514826285383
sg23
F0.24633883400614437
sg24
F0.025726470890106934
sg25
F0.0
ssS'LAVORATO JOHN J'
p143
(dp144
g3
F0.47917354280810615
sg4
F0.0
sg5
F0.216542884994514
sg6
F0.0
sg7
F0.10772610030717461
sg8
F0.3955701307217234
sg9
S'john.lavorato@enron.com'
p145
sg11
F1.0
sg12
F1.0
sg13
F0.0
sg14
F0.7176236189096178
sg15
F0.0
sg16
F0.17991369710467706
sg17
F0.00014981086860476754
sg18
F0.0
sg19
F1.0
sg20
F0.10601820545401935
sg21
F0.6748768472906403
sg22
F0.2080272211788151
sg23
F0.30531883684976846
sg24
F0.10067379142018949
sg25
F0.12108269780610348
ssS'BERBERIAN DAVID'
p146
(dp147
g3
F0.0
sg4
F0.0
sg5
F0.05198393096785757
sg6
F0.0
sg7
F0.018100944143692597
sg8
F0.0
sg9
S'david.berberian@enron.com'
p148
sg11
F0.0
sg12
F1.0
sg13
F0.0
sg14
F0.0
sg15
F0.0
sg16
F0.0
sg17
F0.0
sg18
F0.0
sg19
F0.0
sg20
F0.05162754143488658
sg21
F0.0
sg22
F0.20002724835807337
sg23
F0.19489803447984175
sg24
F0.002206203714601863
sg25
F0.04729177361007726
ssS'DETMERING TIMOTHY J'
p149
(dp150
g3
F0.0
sg4
F875307.0
sg5
F0.22842417698666306
sg6
F0.0
sg7
F0.0234136800600055
sg8
F0.08078171831569504
sg9
S'timothy.detmering@enron.com'
p151
sg11
F0.0
sg12
F0.7787797919521422
sg13
F-315068.0
sg14
F0.0
sg15
F0.0
sg16
F0.0
sg17
F0.00010666302178367792
sg18
F0.0
sg19
F0.053125
sg20
F0.0421522315980062
sg21
F0.0
sg22
F0.1681174171596938
sg23
F0.18942495802054968
sg24
F0.01163176330412325
sg25
F0.05903814863604646
ssS'WAKEHAM JOHN'
p152
(dp153
g3
F0.0
sg4
F0.0
sg5
F0.4536266791395462
sg6
F0.0
sg7
F0.0013649236248225033
sg8
F0.0
sg9
I0
sg11
F0.0
sg12
F1.0
sg13
F0.0
sg14
F0.0
sg15
F0.0
sg16
F0.0
sg17
F0.0
sg18
F109298.0
sg19
F0.0
sg20
F0.0008970347602851445
sg21
F0.0
sg22
F0.1499748016029313
sg23
F0.0
sg24
F0.0020574683844723405
sg25
F0.0
ssS'POWERS WILLIAM'
p154
(dp155
g3
F0.04310515545580566
sg4
F0.0
sg5
F0.0
sg6
F0.0
sg7
F1.5401413175977763e-06
sg8
F0.0
sg9
S'ken.powers@enron.com'
p156
sg11
F0.0
sg12
F0.9950062578722778
sg13
F0.0
sg14
F0.0021735192899836986
sg15
F0.0
sg16
F0.001809576837416481
sg17
F0.0
sg18
F17500.0
sg19
F0.0
sg20
F0.0008970347602851445
sg21
F0.0
sg22
F0.1499748016029313
sg23
F0.0
sg24
F0.0
sg25
F0.0
ssS'GOLD JOSEPH'
p157
(dp158
g3
F0.0
sg4
F0.0
sg5
F0.0
sg6
F0.0
sg7
F0.01984912275687705
sg8
F0.05923795738124326
sg9
S'joe.gold@enron.com'
p159
sg11
F0.0
sg12
F1.0
sg13
F0.0
sg14
F0.0
sg15
F0.0
sg16
F0.0
sg17
F0.07908392198290129
sg18
F0.0
sg19
F0.09375
sg20
F0.018751287657765604
sg21
F0.0
sg22
F0.17537450944893823
sg23
F0.24555953702920474
sg24
F0.02073172355607161
sg25
F0.01270845813299397
ssS'BANNANTINE JAMES M'
p160
(dp161
g3
F0.03736220212555284
sg4
F0.0
sg5
F0.24611060355039935
sg6
F0.0
sg7
F0.042692189640602035
sg8
F0.0
sg9
S'james.bannantine@enron.com'
p162
sg11
F0.07386363636363637
sg12
F0.9985435394388632
sg13
F-560222.0
sg14
F0.08422387248686831
sg15
F0.0
sg16
F0.00201837416481069
sg17
F0.08345034894252543
sg18
F0.0
sg19
F0.0
sg20
F0.10757133916468656
sg21
F0.0
sg22
F0.2511802247402193
sg23
F0.0004292432540418157
sg24
F0.008847033906296046
sg25
F0.11779759420414072
ssS'DUNCAN JOHN H'
p163
(dp164
g3
F0.0
sg4
F0.0
sg5
F0.0
sg6
F0.0
sg7
F0.0032310052847151355
sg8
F0.0
sg9
I0
sg11
F0.0
sg12
F0.9928660826746826
sg13
F0.0
sg14
F0.0
sg15
F0.0
sg16
F0.0
sg17
F0.0
sg18
F102492.0
sg19
F0.0
sg20
F0.008459973823991458
sg21
F0.0
sg22
F0.1499748016029313
sg23
F0.0
sg24
F0.0007482826853468121
sg25
F0.0108229254686334
ssS'SHAPIRO RICHARD S'
p165
(dp166
g3
F1.0
sg4
F0.0
sg5
F0.6022258844306116
sg6
F0.0
sg7
F0.013659594371175959
sg8
F0.0
sg9
S'richard.shapiro@enron.com'
p167
sg11
F0.14015151515151517
sg12
F1.0
sg13
F0.0
sg14
F0.8199601521463503
sg15
F0.0
sg16
F0.08456291759465479
sg17
F6.805197317420175e-05
sg18
F0.0
sg19
F0.08125
sg20
F0.020976734609154533
sg21
F0.10673234811165845
sg22
F0.17180826829889628
sg23
F0.24213638956929892
sg24
F0.010211955522159068
sg25
F0.017696232812582972
ssS'SHERRIFF JOHN R'
p168
(dp169
g3
F0.2103769225691465
sg4
F0.0
sg5
F0.0
sg6
F0.0
sg7
F0.04922678937321548
sg8
F0.10775028889691327
sg9
S'john.sherriff@enron.com'
p170
sg11
F0.05303030303030303
sg12
F1.0
sg13
F0.0
sg14
F0.38090925556964317
sg15
F0.0
sg16
F0.006403118040089087
sg17
F0.1787871091994781
sg18
F0.0
sg19
F0.1875
sg20
F0.06455352486770655
sg21
F0.03776683087027914
sg22
F0.22445426122399717
sg23
F0.385850990499056
sg24
F0.04186362172431148
sg25
F0.05343942818387031
ssS'SHELBY REX'
p171
(dp172
g3
F0.01485246550927454
sg4
F0.0
sg5
F0.10003365928930816
sg6
F1.0
sg7
F0.02957831079781919
sg8
F0.0
sg9
S'rex.shelby@enron.com'
p173
sg11
F0.02462121212121212
sg12
F0.9988109186602161
sg13
F0.0
sg14
F0.01648252128237638
sg15
F0.0
sg16
F0.0027143652561247215
sg17
F0.15186922360613872
sg18
F0.0
sg19
F0.024999999999999998
sg20
F0.05162754143488658
sg21
F0.022988505747126436
sg22
F0.20002724835807337
sg23
F0.19063439813256686
sg24
F0.019350029021398294
sg25
F0.04729177361007726
ssS'LEMAISTRE CHARLES'
p174
(dp175
g3
F0.0
sg4
F0.0
sg5
F0.0
sg6
F0.0
sg7
F0.00359735512068559
sg8
F0.0
sg9
I0
sg11
F0.0
sg12
F0.9928660826746826
sg13
F0.0
sg14
F0.0
sg15
F0.0
sg16
F0.0
sg17
F0.0
sg18
F112492.0
sg19
F0.0
sg20
F0.009296688169148455
sg21
F0.0
sg22
F0.1499748016029313
sg23
F0.0
sg24
F0.0008448452576570909
sg25
F0.012020303487931193
ssS'DEFFNER JOSEPH M'
p176
(dp177
g3
F0.04713182388276454
sg4
F0.0
sg5
F0.18196124373259664
sg6
F0.0
sg7
F0.009070287423694406
sg8
F0.06517409415804382
sg9
S'joseph.deffner@enron.com'
p178
sg11
F0.2178030303030303
sg12
F1.0
sg13
F0.0
sg14
F0.09998188733925013
sg15
F0.0
sg16
F0.00515033407572383
sg17
F0.0024665703127948616
sg18
F0.0
sg19
F0.075
sg20
F0.004136047783208469
sg21
F0.006568144499178982
sg22
F0.15814199596180714
sg23
F0.1854843789651008
sg24
F0.01167102564602461
sg25
F0.0005059335542539643
ssS'KISHKILL JOSEPH G'
p179
(dp180
g3
F0.0
sg4
F0.0
sg5
F0.5085394054108401
sg6
F0.0
sg7
F0.010101378541742857
sg8
F0.0
sg9
S'joe.kishkill@enron.com'
p181
sg11
F0.0
sg12
F0.9854348236752458
sg13
F0.0
sg14
F0.0
sg15
F0.0
sg16
F0.0
sg17
F0.04491980436940001
sg18
F0.0
sg19
F0.0
sg20
F0.021939928556622388
sg21
F0.0
sg22
F0.2095357275956537
sg23
F0.15680067095130024
sg24
F0.006806657097122626
sg25
F0.0
ssS'WHALLEY LAWRENCE G'
p182
(dp183
g3
F0.3973199551125487
sg4
F0.0
sg5
F0.2528293474032077
sg6
F0.0
sg7
F0.07104419076316121
sg8
F0.15709967322484364
sg9
S'greg.whalley@enron.com'
p184
sg11
F0.3522727272727273
sg12
F1.0
sg13
F0.0
sg14
F0.7100163013946749
sg15
F0.0
sg16
F0.03869710467706013
sg17
F0.029057323796790435
sg18
F0.0
sg19
F0.375
sg20
F0.12457193103714434
sg21
F0.03940886699507389
sg22
F0.3109875491357226
sg23
F0.45926688491781387
sg24
F0.04516785776116798
sg25
F0.09557829561938053
ssS'MCCARTY DANNY J'
p185
(dp186
g3
F0.09459370255462407
sg4
F0.0
sg5
F0.0
sg6
F0.0
sg7
F0.005392583639027896
sg8
F0.0
sg9
S'danny.mccarty@enron.com'
p187
sg11
F0.04734848484848485
sg12
F1.0
sg13
F0.0
sg14
F0.0920123166093099
sg15
F0.0
sg16
F0.01496380846325167
sg17
F0.0
sg18
F0.0
sg19
F0.0
sg20
F0.016336843520359644
sg21
F0.003284072249589491
sg22
F0.15541963623096472
sg23
F0.0
sg24
F0.0
sg25
F0.01934224911425236
ssS'MCCONNELL MICHAEL S'
p188
(dp189
g3
F0.2197504785794442
sg4
F0.0
sg5
F0.3556694045802862
sg6
F0.0
sg7
F0.034131251808611526
sg8
F0.10775028889691327
sg9
S'mike.mcconnell@enron.com'
p190
sg11
F0.17424242424242425
sg12
F1.0
sg13
F0.0
sg14
F0.39648614381452635
sg15
F0.0
sg16
F0.19084075723830735
sg17
F5.2124915622792834e-05
sg18
F0.0
sg19
F0.13749999999999998
sg20
F0.06398993078328999
sg21
F0.3185550082101806
sg22
F0.23509822307537454
sg23
F0.3284907735197407
sg24
F0.02029131132002166
sg25
F0.04725142236676986
ssS'DELAINEY DAVID W'
p191
(dp192
g3
F0.20417189253416068
sg4
F0.0
sg5
F0.3766955320571946
sg6
F1.0
sg7
F0.05639969780450171
sg8
F0.2516757575745797
sg9
S'david.delainey@enron.com'
p193
sg11
F0.125
sg12
F1.0
sg13
F0.0
sg14
F0.37982249592465134
sg15
F0.0
sg16
F0.21359966592427615
sg17
F0.00016033237935084981
sg18
F0.0
sg19
F0.375
sg20
F0.07442611533413919
sg21
F1.0
sg22
F0.22616586349655168
sg23
F0.3286032586492066
sg24
F0.0458477065515185
sg25
F0.06670220642694573
ssS'SULLIVAN-SHAKLOVITZ COLLEEN'
p194
(dp195
g3
F0.0
sg4
F181993.0
sg5
F0.0
sg6
F0.0
sg7
F0.016637876973459843
sg8
F0.10775028889691327
sg9
I0
sg11
F0.0
sg12
F1.0
sg13
F0.0
sg14
F0.0
sg15
F0.0
sg16
F0.0
sg17
F1.563747468683785e-05
sg18
F0.0
sg19
F0.012499999999999999
sg20
F0.028613400885145638
sg21
F0.0
sg22
F0.1499748016029313
sg23
F0.14648173511461784
sg24
F0.009650038601371093
sg25
F0.03966343802375098
ssS'WROBEL BRUCE'
p196
(dp197
g3
F0.0
sg4
F0.0
sg5
F0.0
sg6
F0.0
sg7
F0.0010227007297062274
sg8
F0.0
sg9
I0
sg11
F0.0
sg12
F1.0
sg13
F0.0
sg14
F0.0
sg15
F0.0
sg16
F0.0
sg17
F0.0
sg18
F0.0
sg19
F0.0
sg20
F0.0037275168367705766
sg21
F0.0
sg22
F0.1499748016029313
sg23
F0.0
sg24
F0.0
sg25
F0.004050554459854647
ssS'LINDHOLM TOD A'
p198
(dp199
g3
F0.0
sg4
F204075.0
sg5
F0.2523441290768175
sg6
F0.0
sg7
F0.027298429403956558
sg8
F0.03401073650930126
sg9
S'tod.lindholm@enron.com'
p200
sg11
F0.0
sg12
F1.0
sg13
F0.0
sg14
F0.0
sg15
F0.0
sg16
F0.0
sg17
F0.00025386764460730586
sg18
F0.0
sg19
F0.024999999999999998
sg20
F0.06323575266888337
sg21
F0.0
sg22
F0.1796213261358972
sg23
F0.21278317006491743
sg24
F0.008457809489827774
sg25
F0.0742206969620463
ssS'MEYER JEROME J'
p201
(dp202
g3
F0.0
sg4
F0.0
sg5
F0.009402744324912683
sg6
F0.0
sg7
F1.7160463747542543e-05
sg8
F0.0
sg9
I0
sg11
F0.0
sg12
F0.989057712249735
sg13
F0.0
sg14
F0.0
sg15
F0.0
sg16
F0.0
sg17
F0.0
sg18
F38346.0
sg19
F0.0
sg20
F0.0008970347602851445
sg21
F0.0
sg22
F0.1499748016029313
sg23
F0.0
sg24
F2.077060930394096e-05
sg25
F0.0
ssS'LAY KENNETH L'
p203
(dp204
g3
F0.28206482276057826
sg4
F202911.0
sg5
F0.4363992428845574
sg6
F1.0
sg7
F1.0
sg8
F0.6996494367627687
sg9
S'kenneth.lay@enron.com'
p205
sg11
F0.23295454545454547
sg12
F0.9143929920961903
sg13
F0.0
sg14
F0.4366962506792248
sg15
F81525000.0
sg16
F0.002505567928730512
sg17
F1.0
sg18
F0.0
sg19
F0.875
sg20
F1.0
sg21
F0.026272577996715927
sg22
F1.0
sg23
F0.9649613321118948
sg24
F1.0
sg25
F1.0
ssS'BUTTS ROBERT H'
p206
(dp207
g3
F0.0
sg4
F0.0
sg5
F0.04113427433632187
sg6
F0.0
sg7
F0.010878047787528891
sg8
F0.03401073650930126
sg9
S'bob.butts@enron.com'
p208
sg11
F0.0
sg12
F0.9785982480240476
sg13
F0.0
sg14
F0.0
sg15
F0.0
sg16
F0.0
sg17
F0.014542465348273106
sg18
F0.0
sg19
F0.09375
sg20
F0.00939313980089299
sg21
F0.0
sg22
F0.17402262926616463
sg23
F0.23533328893920225
sg24
F0.012278722882344889
sg25
F0.0
ssS'OLSON CINDY K'
p209
(dp210
g3
F0.07815697405769358
sg4
F77716.0
sg5
F0.278851912241053
sg6
F0.0
sg7
F0.026181712800234937
sg8
F0.019434706576743576
sg9
S'cindy.olson@enron.com'
p211
sg11
F0.03787878787878788
sg12
F1.0
sg13
F0.0
sg14
F0.15504437601883717
sg15
F0.0
sg16
F0.003619153674832962
sg17
F9.38248481210271e-05
sg18
F0.0
sg19
F0.09375
sg20
F0.053929421370975825
sg21
F0.02463054187192118
sg22
F0.20581487562264686
sg23
F0.296131051474995
sg24
F0.012761294337465506
sg25
F0.047659709405834055
ssS'MCDONALD REBECCA'
p212
(dp213
g3
F0.059013796290184176
sg4
F0.0
sg5
F0.0
sg6
F0.0
sg7
F0.010594531445394476
sg8
F0.0
sg9
S'rebecca.mcdonald@enron.com'
p214
sg11
F0.10227272727272728
sg12
F1.0
sg13
F0.0
sg14
F0.13041115739902193
sg15
F0.0
sg16
F0.0009047884187082405
sg17
F0.0
sg18
F0.0
sg19
F0.0
sg20
F0.035306444289336096
sg21
F0.0016420361247947454
sg22
F0.20376122929481802
sg23
F0.0
sg24
F0.0
sg25
F0.022047645676722374
ssS'CUMBERLAND MICHAEL S'
p215
(dp216
g3
F0.0
sg4
F0.0
sg5
F0.09767313770146396
sg6
F0.0
sg7
F0.006563609902229917
sg8
F0.05344544308604483
sg9
I0
sg11
F0.0
sg12
F1.0
sg13
F0.0
sg14
F0.0
sg15
F0.0
sg16
F0.0
sg17
F6.882419414639128e-05
sg18
F0.0
sg19
F0.040625
sg20
F0.005127398039120627
sg21
F0.0
sg22
F0.16194864686450403
sg23
F0.16638710362490078
sg24
F0.007801830967352358
sg25
F0.0
ssS'GAHN ROBERT S'
p217
(dp218
g3
F0.0
sg4
F73122.0
sg5
F0.21891652059117953
sg6
F0.0
sg7
F0.007940753568668024
sg8
F0.0
sg9
I0
sg11
F0.0
sg12
F0.9997026583258808
sg13
F0.0
sg14
F0.0
sg15
F0.0
sg16
F0.0
sg17
F0.007388899844773931
sg18
F0.0
sg19
F0.06373374999999999
sg20
F0.007378824474529333
sg21
F0.0
sg22
F0.16352815333524048
sg23
F0.17278435790788457
sg24
F0.00869628041840524
sg25
F0.002423316334183291
ssS'MCCLELLAN GEORGE'
p219
(dp220
g3
F0.11512311043633244
sg4
F0.0
sg5
F1.0
sg6
F0.0
sg7
F0.015070179458316263
sg8
F0.0
sg9
S'george.mcclellan@enron.com'
p221
sg11
F0.09848484848484848
sg12
F0.9643304133734126
sg13
F0.0
sg14
F0.2660749864155044
sg15
F0.0
sg16
F0.0034103563474387525
sg17
F0.0049795704115426186
sg18
F0.0
sg19
F0.11249999999999999
sg20
F0.02018046444115597
sg21
F0.0
sg22
F0.17537450944893823
sg23
F0.23704036326397648
sg24
F0.012734314754762013
sg25
F0.014753678076965716
ssS'HERMANN ROBERT J'
p222
(dp223
g3
F0.0
sg4
F0.0
sg5
F0.21138470819144706
sg6
F0.0
sg7
F0.012745225617552227
sg8
F0.029152059865115366
sg9
S'robert.hermann@enron.com'
p224
sg11
F0.0
sg12
F0.9201001259564443
sg13
F0.0
sg14
F0.0
sg15
F0.0
sg16
F0.0
sg17
F0.04019805923494717
sg18
F0.0
sg19
F0.0875
sg20
F0.014489614726693287
sg21
F0.0
sg22
F0.17765111782761256
sg23
F0.2363654524871812
sg24
F0.012528617163226658
sg25
F0.005458772092451278
ssS'SCRIMSHAW MATTHEW'
p225
(dp226
g3
F0.0
sg4
F0.0
sg5
F0.0
sg6
F0.0
sg7
F0.0055832638406775985
sg8
F0.0
sg9
S'matthew.scrimshaw@enron.com'
p227
sg11
F0.0
sg12
F1.0
sg13
F0.0
sg14
F0.0
sg15
F0.0
sg16
F0.0
sg17
F0.0
sg18
F0.0
sg19
F0.0
sg20
F0.01634957896045078
sg21
F0.0
sg22
F0.1499748016029313
sg23
F0.0
sg24
F0.0
sg25
F0.02211332562253875
ssS'GATHMANN WILLIAM D'
p228
(dp229
g3
F0.0
sg4
F0.0
sg5
F0.0
sg6
F0.0
sg7
F0.014005147200599217
sg8
F0.0
sg9
I0
sg11
F0.0
sg12
F1.0
sg13
F-72419.0
sg14
F0.0
sg15
F0.0
sg16
F0.0
sg17
F0.0
sg18
F0.0
sg19
F0.0
sg20
F0.040473737213470654
sg21
F0.0
sg22
F0.16517750819638902
sg23
F0.0
sg24
F0.0
sg25
F0.05105818078661284
ssS'HAEDICKE MARK E'
p230
(dp231
g3
F0.2646379298963628
sg4
F2157527.0
sg5
F0.3329603126379703
sg6
F0.0
sg7
F0.03162583504341295
sg8
F0.1911104097341449
sg9
S'mark.haedicke@enron.com'
p232
sg11
F0.34090909090909094
sg12
F0.733338736086721
sg13
F-329825.0
sg14
F0.33454084404999096
sg15
F0.0
sg16
F0.13509187082405344
sg17
F0.005056309870653952
sg18
F0.0
sg19
F0.14375
sg20
F0.017235302371389805
sg21
F0.10016420361247948
sg22
F0.1801581164866156
sg23
F0.3366679924913926
sg24
F0.037264124311256586
sg25
F0.017722813393491816
ssS'BOWEN JR RAYMOND M'
p233
(dp234
g3
F0.1226483596276982
sg4
F0.0
sg5
F0.2881016597963832
sg6
F1.0
sg7
F0.019486073218555278
sg8
F0.1893509857477523
sg9
S'raymond.bowen@enron.com'
p235
sg11
F0.26515151515151514
sg12
F0.9997622978747204
sg13
F0.0
sg14
F0.288534685745336
sg15
F0.0
sg16
F0.0018791759465478842
sg17
F0.0001564712744899022
sg18
F0.0
sg19
F0.16874999999999998
sg20
F0.006024880370782777
sg21
F0.02463054187192118
sg22
F0.16448892859824588
sg23
F0.25070775643459936
sg24
F0.025778238085122473
sg25
F0.0
ssS'GILLIS JOHN'
p236
(dp237
g3
F0.0
sg4
F0.0
sg5
F0.0
sg6
F0.0
sg7
F0.0004802767471196387
sg8
F0.0
sg9
I0
sg11
F0.0
sg12
F1.0
sg13
F0.0
sg14
F0.0
sg15
F0.0
sg16
F0.0
sg17
F0.0
sg18
F0.0
sg19
F0.0
sg20
F0.0026393284101973767
sg21
F0.0
sg22
F0.1543417943746306
sg23
F0.0
sg24
F0.0
sg25
F0.00028539916171893266
ssS'FITZGERALD JAY L'
p238
(dp239
g3
F0.061786256518582085
sg4
F0.0
sg5
F0.1043437968552607
sg6
F0.0
sg7
F0.019458695830200757
sg8
F0.10813781694605354
sg9
S'jay.fitzgerald@enron.com'
p240
sg11
F0.001893939393939394
sg12
F1.0
sg13
F0.0
sg14
F0.13095453722151784
sg15
F0.0
sg16
F0.0011135857461024498
sg17
F0.02755033456956258
sg18
F0.0
sg19
F0.04375
sg20
F0.033879708804365756
sg21
F0.013136288998357963
sg22
F0.20506894318291224
sg23
F0.17921760743229745
sg24
F0.013662223137120406
sg25
F0.0193447528710521
ssS'MORAN MICHAEL P'
p241
(dp242
g3
F0.04435936365436663
sg4
F0.0
sg5
F0.0
sg6
F0.0
sg7
F0.0013075177085279388
sg8
F0.0
sg9
S'michael.moran@enron.com'
p243
sg11
F0.0
sg12
F1.0
sg13
F0.0
sg14
F0.023003079152327476
sg15
F0.0
sg16
F0.0013223830734966592
sg17
F0.0
sg18
F0.0
sg19
F0.0
sg20
F0.005395961209477015
sg21
F0.0
sg22
F0.15928035773431862
sg23
F0.0
sg24
F0.0
sg25
F0.0017333857685997687
ssS'REDMOND BRIAN L'
p244
(dp245
g3
F0.11030431051554558
sg4
F0.0
sg5
F0.0642105585256357
sg6
F0.0
sg7
F0.0579715244036936
sg8
F0.0
sg9
S'brian.redmond@enron.com'
p246
sg11
F0.38636363636363635
sg12
F1.0
sg13
F0.0
sg14
F0.19253758377105595
sg15
F0.0
sg16
F0.015381403118040088
sg17
F0.0
sg18
F0.0
sg19
F0.0
sg20
F0.16141899738274498
sg21
F0.08045977011494253
sg22
F0.17193040221156242
sg23
F0.08714447949981012
sg24
F0.001076952712719308
sg25
F0.218614040183084
ssS'BAZELIDES PHILIP J'
p247
(dp248
g3
F0.0
sg4
F684694.0
sg5
F0.0
sg6
F0.0
sg7
F0.017299316922850517
sg8
F0.018220037415697103
sg9
I0
sg11
F0.0
sg12
F1.0
sg13
F0.0
sg14
F0.0
sg15
F0.0
sg16
F0.0
sg17
F8.436514121170544e-05
sg18
F0.0
sg19
F0.0
sg20
F0.033440376809528535
sg21
F0.0
sg22
F0.1499748016029313
sg23
F0.0727265855453909
sg24
F0.008305694469667392
sg25
F0.04657107012661789
ssS'BELDEN TIMOTHY N'
p249
(dp250
g3
F0.5274935639316126
sg4
F2144013.0
sg5
F0.07586454103154794
sg6
F1.0
sg7
F0.0461731214449842
sg8
F0.0
sg9
S'tim.belden@enron.com'
p251
sg11
F0.4318181818181818
sg12
F0.3338536337035931
sg13
F0.0
sg14
F1.0
sg15
F0.0
sg16
F0.03368596881959911
sg17
F0.020338176799798525
sg18
F0.0
sg19
F0.656249875
sg20
F0.02349338777374559
sg21
F0.17733990147783252
sg22
F0.15904812479241265
sg23
F0.1925736417645587
sg24
F0.05312515446993989
sg25
F0.027749078384590085
ssS'DURAN WILLIAM D'
p252
(dp253
g3
F0.05967390586837415
sg4
F0.0
sg5
F0.11271490581956
sg6
F0.0
sg7
F0.025831784120590624
sg8
F0.21479587533335381
sg9
S'w.duran@enron.com'
p254
sg11
F0.20075757575757577
sg12
F1.0
sg13
F0.0
sg14
F0.10849483789168629
sg15
F0.0
sg16
F0.0008351893095768373
sg17
F0.0001513553105491466
sg18
F0.0
sg19
F0.09375
sg20
F0.03427995968032906
sg21
F0.0049261083743842365
sg22
F0.16086038245362366
sg23
F0.18959773517940928
sg24
F0.020213085980193102
sg25
F0.04226891722184077
ssS'THORN TERENCE H'
p255
(dp256
g3
F0.017558914779853458
sg4
F16586.0
sg5
F0.20171531235383347
sg6
F0.0
sg7
F0.04060696631553132
sg8
F0.03886941315348715
sg9
S'terence.thorn@enron.com'
p257
sg11
F0.0
sg12
F1.0
sg13
F0.0
sg14
F0.013222242347400832
sg15
F0.0
sg16
F0.002853563474387528
sg17
F0.04118148264303052
sg18
F0.0
sg19
F0.0
sg20
F0.09891101611702495
sg21
F0.0
sg22
F0.17101108683404484
sg23
F0.1998572788677337
sg24
F0.00880122462199205
sg25
F0.12962694256591517
ssS'FASTOW ANDREW S'
p258
(dp259
g3
F0.0
sg4
F0.0
sg5
F0.24444949576636085
sg6
F1.0
sg7
F0.026538895030157793
sg8
F0.3373971952608857
sg9
S'andrew.fastow@enron.com'
p260
sg11
F0.0
sg12
F0.6044799288662835
sg13
F0.0
sg14
F0.0
sg15
F0.0
sg16
F0.0
sg17
F0.02678293997844924
sg18
F0.0
sg19
F0.1625
sg20
F0.03740282793091964
sg21
F0.0
sg22
F0.2533027405444973
sg23
F0.3965757726828513
sg24
F0.023407568997361745
sg25
F0.0
ssS'FOY JOE'
p261
(dp262
g3
F0.0037626245956828837
sg4
F181755.0
sg5
F0.0
sg6
F0.0
sg7
F0.003688268324344081
sg8
F0.0
sg9
S'tracy.foy@enron.com'
p263
sg11
F0.0
sg12
F1.0
sg13
F0.0
sg14
F0.0003622532149972831
sg15
F0.0
sg16
F0.0009047884187082405
sg17
F0.0
sg18
F0.0
sg19
F0.0
sg20
F0.007883908773479265
sg21
F0.0
sg22
F0.1499748016029313
sg23
F0.0
sg24
F0.0017550730330254715
sg25
F0.009998548985594198
ssS'CALGER CHRISTOPHER F'
p264
(dp265
g3
F0.17149646841375668
sg4
F0.0
sg5
F0.15657252265445026
sg6
F1.0
sg7
F0.012007186171975746
sg8
F0.07293923117078172
sg9
S'christopher.calger@enron.com'
p266
sg11
F0.3768939393939394
sg12
F0.9250938680841665
sg13
F0.0
sg14
F0.3963050172070277
sg15
F0.0
sg16
F0.010022271714922048
sg17
F4.691242406051355e-05
sg18
F0.0
sg19
F0.15625
sg20
F0.00346094739345721
sg21
F0.041050903119868636
sg22
F0.15723183630900145
sg23
F0.21614152609025086
sg24
F0.015829473510052303
sg25
F0.0
ssS'RICE KENNETH D'
p267
(dp268
g3
F0.05973991682619315
sg4
F0.0
sg5
F0.20523423805423083
sg6
F1.0
sg7
F0.16528373917866776
sg8
F0.31426134316366705
sg9
S'ken.rice@enron.com'
p269
sg11
F0.07954545454545454
sg12
F0.0
sg13
F0.0
sg14
F0.1564933888788263
sg15
F0.0
sg16
F0.001252783964365256
sg17
F0.016876792819580513
sg18
F0.0
sg19
F0.21875
sg20
F0.45950590846095235
sg21
F0.006568144499178982
sg22
F0.30823432482346147
sg23
F0.3785223593440947
sg24
F0.004876892714530628
sg25
F0.5762767471098494
ssS'KAMINSKI WINCENTY J'
p270
(dp271
g3
F0.3041124826721236
sg4
F0.0
sg5
F0.36537814244436384
sg6
F0.0
sg7
F0.014219181390939077
sg8
F0.06286466797552938
sg9
S'vince.kaminski@enron.com'
p272
sg11
F0.07765151515151515
sg12
F1.0
sg13
F0.0
sg14
F0.10559681217170802
sg15
F0.0
sg16
F1.0
sg17
F0.00045068746489411064
sg18
F0.0
sg19
F0.049999999999999996
sg20
F0.020753681310178136
sg21
F0.28078817733990147
sg22
F0.15723183630900145
sg23
F0.24755817280955458
sg24
F0.010494623140082947
sg25
F0.024746724620290723
ssS'LOCKHART EUGENE E'
p273
(dp274
g3
F0.0
sg4
F0.0
sg5
F0.0
sg6
F0.0
sg7
F0.0
sg8
F0.0
sg9
I0
sg11
F0.0
sg12
F1.0
sg13
F0.0
sg14
F0.0
sg15
F0.0
sg16
F0.0
sg17
F0.0
sg18
F0.0
sg19
F0.0
sg20
F0.0008970347602851445
sg21
F0.0
sg22
F0.1499748016029313
sg23
F0.0
sg24
F0.0
sg25
F0.0
ssS'COX DAVID'
p275
(dp276
g3
F0.006733117697537792
sg4
F0.0
sg5
F0.12178979992393876
sg6
F0.0
sg7
F0.010419386236882464
sg8
F0.0
sg9
S'chip.cox@enron.com'
p277
sg11
F0.0
sg12
F0.9882290364132261
sg13
F0.0
sg14
F0.01285998913240355
sg15
F0.0
sg16
F0.002296770601336303
sg17
F4.768464503270307e-05
sg18
F0.0
sg19
F0.09999999999999999
sg20
F0.010980268592059056
sg21
F0.006568144499178982
sg22
F0.17174596330431602
sg23
F0.28282181095659154
sg24
F0.010635334120453485
sg25
F0.0034223152972786145
ssS'OVERDYKE JR JERE C'
p278
(dp279
g3
F0.0
sg4
F0.0
sg5
F0.08232974738047674
sg6
F0.0
sg7
F0.05134516183943458
sg8
F0.026399328025585405
sg9
S'jere.overdyke@enron.com'
p280
sg11
F0.0
sg12
F1.0
sg13
F0.0
sg14
F0.0
sg15
F0.0
sg16
F0.0
sg17
F1.6988861388169517e-05
sg18
F0.0
sg19
F0.0
sg20
F0.14956384881356252
sg21
F0.0
sg22
F0.26750298165676467
sg23
F0.08543560541296441
sg24
F0.00241200752496676
sg25
F0.15332826138196196
ssS'PEREIRA PAULO V. FERRAZ'
p281
(dp282
g3
F0.0
sg4
F0.0
sg5
F0.12214387816211539
sg6
F0.0
sg7
F0.00018799046208256565
sg8
F0.0
sg9
I0
sg11
F0.0
sg12
F0.9711076348324642
sg13
F0.0
sg14
F0.0
sg15
F0.0
sg16
F0.0
sg17
F0.0
sg18
F101250.0
sg19
F0.0
sg20
F0.0008970347602851445
sg21
F0.0
sg22
F0.1499748016029313
sg23
F0.0
sg24
F0.0002698151395493809
sg25
F0.0
ssS'STABLER FRANK'
p283
(dp284
g3
F0.0
sg4
F0.0
sg5
F0.07218824722529431
sg6
F0.0
sg7
F0.01016919495272662
sg8
F0.0
sg9
S'frank.stabler@enron.com'
p285
sg11
F0.0
sg12
F1.0
sg13
F0.0
sg14
F0.0
sg15
F0.0
sg16
F0.0
sg17
F0.03437068672356198
sg18
F0.0
sg19
F0.0625
sg20
F0.011307829807566077
sg21
F0.0
sg22
F0.1794420697143368
sg23
F0.21552330781870635
sg24
F0.010738598135282097
sg25
F0.0
ssS'SKILLING JEFFREY K'
p286
(dp287
g3
F0.23942174400950558
sg4
F0.0
sg5
F0.1282375209277724
sg6
F1.0
sg7
F0.23762906658565072
sg8
F0.37314636627347664
sg9
S'jeff.skilling@enron.com'
p288
sg11
F0.16666666666666669
sg12
F1.0
sg13
F0.0
sg14
F0.36986053251222606
sg15
F0.0
sg16
F0.007516703786191537
sg17
F0.0021353840433470796
sg18
F0.0
sg19
F0.7
sg20
F0.5317507033126446
sg21
F0.04926108374384236
sg22
F0.5440551591529837
sg23
F1.0
sg24
F0.08384253915996143
sg25
F0.5604339348249978
ssS'BLAKE JR. NORMAN P'
p289
(dp290
g3
F0.0
sg4
F0.0
sg5
F0.005590939094171698
sg6
F0.0
sg7
F1.8210978059519933e-05
sg8
F0.0
sg9
I0
sg11
F0.0
sg12
F0.9675309740422431
sg13
F0.0
sg14
F0.0
sg15
F0.0
sg16
F0.0
sg17
F0.0
sg18
F113784.0
sg19
F0.0
sg20
F0.0008970347602851445
sg21
F0.0
sg22
F0.1499748016029313
sg23
F0.0
sg24
F1.2350352998484652e-05
sg25
F0.0
ssS'SHERRICK JEFFREY B'
p291
(dp292
g3
F0.040464717143045746
sg4
F0.0
sg5
F0.0
sg6
F0.0
sg7
F0.012670920066387089
sg8
F0.0
sg9
S'jeffrey.sherrick@enron.com'
p293
sg11
F0.07386363636363637
sg12
F1.0
sg13
F0.0
sg14
F0.10559681217170802
sg15
F0.0
sg16
F0.0017399777282850778
sg17
F0.0
sg18
F0.0
sg19
F0.0
sg20
F0.038177045036523964
sg21
F0.029556650246305417
sg22
F0.17335351278093103
sg23
F0.0
sg24
F0.0
sg25
F0.04152943556238337
ssS'PRENTICE JAMES'
p294
(dp295
g3
F0.0
sg4
F564348.0
sg5
F0.0
sg6
F0.0
sg7
F0.011251944026841106
sg8
F0.0
sg9
S'james.prentice@enron.com'
p296
sg11
F0.0
sg12
F1.0
sg13
F0.0
sg14
F0.0
sg15
F0.0
sg16
F0.0
sg17
F0.0
sg18
F0.0
sg19
F0.0
sg20
F0.023174696609164665
sg21
F0.0
sg22
F0.16199868664296083
sg23
F0.0
sg24
F0.005449489455816119
sg25
F0.025801242934747674
ssS'GRAY RODNEY'
p297
(dp298
g3
F0.0
sg4
F93585.0
sg5
F0.0
sg6
F0.0
sg7
F0.007445501277935498
sg8
F0.0710581459212187
sg9
I0
sg11
F0.0
sg12
F1.0
sg13
F0.0
sg14
F0.0
sg15
F0.0
sg16
F0.0
sg17
F0.06571919014483872
sg18
F0.0
sg19
F0.0
sg20
F0.0008970347602851445
sg21
F0.0
sg22
F0.1499748016029313
sg23
F0.005952713051334614
sg24
F0.011072424604015961
sg25
F0.0
ssS'PICKERING MARK R'
p299
(dp300
g3
F0.05927784012146017
sg4
F0.0
sg5
F0.13836590707413352
sg6
F0.0
sg7
F0.009311394564538535
sg8
F0.0
sg9
S'mark.pickering@enron.com'
p301
sg11
F0.013257575757575758
sg12
F1.0
sg13
F0.0
sg14
F0.13186017025901103
sg15
F400000.0
sg16
F0.0046631403118040085
sg17
F0.0
sg18
F0.0
sg19
F0.0375
sg20
F0.0014829056927844436
sg21
F0.0
sg22
F0.1499748016029313
sg23
F0.5894553739995573
sg24
F0.013390235339694044
sg25
F0.0008384091664981968
ssS'THE TRAVEL AGENCY IN THE PARK'
p302
(dp303
g3
F0.0
sg4
F0.0
sg5
F0.0
sg6
F0.0
sg7
F0.002318532743167699
sg8
F0.0
sg9
I0
sg11
F0.0
sg12
F1.0
sg13
F0.0
sg14
F0.0
sg15
F0.0
sg16
F0.0
sg17
F0.03495226564324221
sg18
F0.0
sg19
F0.0
sg20
F0.0008970347602851445
sg21
F0.0
sg22
F0.1499748016029313
sg23
F0.0
sg24
F0.0034964921183262697
sg25
F0.0
ssS'NOLES JAMES L'
p304
(dp305
g3
F0.0
sg4
F774401.0
sg5
F0.0
sg6
F0.0
sg7
F0.007050878235321922
sg8
F0.0
sg9
I0
sg11
F0.0
sg12
F1.0
sg13
F-94556.0
sg14
F0.0
sg15
F0.0
sg16
F0.0
sg17
F0.0
sg18
F0.0
sg19
F0.0
sg20
F0.008398025876583292
sg21
F0.0
sg22
F0.1766508405070452
sg23
F0.0
sg24
F0.007477815255965217
sg25
F0.0
ssS'KEAN STEVEN J'
p306
(dp307
g3
F0.8419037560235
sg4
F0.0
sg5
F0.1833906706941245
sg6
F0.0
sg7
F0.04895802179428334
sg8
F0.05830411973023073
sg9
S'steven.kean@enron.com'
p308
sg11
F0.26515151515151514
sg12
F1.0
sg13
F0.0
sg14
F0.6591197246875566
sg15
F0.0
sg16
F0.47042037861915365
sg17
F0.00011882550209566293
sg18
F0.0
sg19
F0.125
sg20
F0.1260876721936781
sg21
F0.6354679802955665
sg22
F0.3878850989946899
sg23
F0.3638560982238148
sg24
F0.016874521948880294
sg25
F0.05886879569065025
ssS'FOWLER PEGGY'
p309
(dp310
g3
F0.03412766519242194
sg4
F0.0
sg5
F0.0
sg6
F0.0
sg7
F0.012751817330861347
sg8
F0.0
sg9
S'kulvinder.fowler@enron.com'
p311
sg11
F0.0
sg12
F1.0
sg13
F0.0
sg14
F0.0018112660749864155
sg15
F0.0
sg16
F0.002505567928730512
sg17
F0.0
sg18
F0.0
sg19
F0.0
sg20
F0.0392406373815154
sg21
F0.0
sg22
F0.18223116834417968
sg23
F0.0
sg24
F0.0
sg25
F0.03856303691026629
ssS'WASAFF GEORGE'
p312
(dp313
g3
F0.02640438312759918
sg4
F831299.0
sg5
F0.0
sg6
F0.0
sg7
F0.021283100613050512
sg8
F0.03886941315348715
sg9
S'george.wasaff@enron.com'
p314
sg11
F0.04166666666666667
sg12
F0.8335443070483673
sg13
F0.0
sg14
F0.061039666727042204
sg15
F0.0
sg16
F0.0020879732739420933
sg17
F0.00013755186067125887
sg18
F0.0
sg19
F0.040625
sg20
F0.04273330131027945
sg21
F0.011494252873563218
sg22
F0.1723266896170166
sg23
F0.23396546976489707
sg24
F0.009988384198489079
sg25
F0.0485688060317481
ssS'WHITE JR THOMAS E'
p315
(dp316
g3
F0.0
sg4
F0.0
sg5
F0.35562131988127454
sg6
F0.0
sg7
F0.09672926418400767
sg8
F0.0
sg9
S'thomas.white@enron.com'
p317
sg11
F0.0
sg12
F1.0
sg13
F0.0
sg14
F0.0
sg15
F0.0
sg16
F0.0
sg17
F0.10477716164196958
sg18
F0.0
sg19
F0.056249999999999994
sg20
F0.3089913976984781
sg21
F0.0
sg22
F0.9473332771321552
sg23
F0.2857509237278832
sg24
F0.01867866808115385
sg25
F0.0377615727132898
ssS'CHRISTODOULOU DIOMEDES'
p318
(dp319
g3
F0.0
sg4
F0.0
sg5
F0.0
sg6
F0.0
sg7
F0.042805652965094074
sg8
F0.0
sg9
S'diomedes.christodoulou@enron.com'
p320
sg11
F0.0
sg12
F1.0
sg13
F0.0
sg14
F0.0
sg15
F0.0
sg16
F0.0
sg17
F0.0
sg18
F0.0
sg19
F0.0
sg20
F0.12454646015696207
sg21
F0.0
sg22
F0.20472085289433764
sg23
F0.0
sg24
F0.0
sg25
F0.1492691766809175
ssS'ALLEN PHILLIP K'
p321
(dp322
g3
F0.19156379959073208
sg4
F2869717.0
sg5
F0.06062169144485778
sg6
F0.0
sg7
F0.04422564549731942
sg8
F0.05923795738124326
sg9
S'phillip.allen@enron.com'
p323
sg11
F0.08901515151515152
sg12
F0.12080033420975878
sg13
F-126027.0
sg14
F0.2548451367505887
sg15
F0.0
sg16
F0.15277004454342985
sg17
F1.4672198471600946e-05
sg18
F0.0
sg19
F0.521875
sg20
F0.03608308234920695
sg21
F0.10673234811165845
sg22
F0.15723183630900145
sg23
F0.18173547457026182
sg24
F0.04330292548962511
sg25
F0.05035290743226814
ssS'SHARP VICTORIA T'
p324
(dp325
g3
F0.2070103637203776
sg4
F187469.0
sg5
F0.5085481480833877
sg6
F0.0
sg7
F0.013775965598197396
sg8
F0.08204516859024914
sg9
S'vicki.sharp@enron.com'
p326
sg11
F0.045454545454545456
sg12
F1.0
sg13
F0.0
sg14
F0.4486506067741351
sg15
F0.0
sg16
F0.009465478841870824
sg17
F0.00023176281927838073
sg18
F0.0
sg19
F0.075
sg20
F0.010949813394269228
sg21
F0.009852216748768473
sg22
F0.16224364546638456
sg23
F0.2233018794915312
sg24
F0.015223195743544988
sg25
F0.008183005057821643
ssS'JAEDICKE ROBERT'
p327
(dp328
g3
F0.0
sg4
F0.0
sg5
F0.0
sg6
F0.0
sg7
F0.003762324411373332
sg8
F0.0
sg9
I0
sg11
F0.0
sg12
F0.9928660826746826
sg13
F-44093.0
sg14
F0.0
sg15
F0.0
sg16
F0.0
sg17
F0.0
sg18
F108750.0
sg19
F0.0
sg20
F0.009680623034004581
sg21
F0.0
sg22
F0.15251381650683882
sg23
F0.0
sg24
F0.0008087115430985846
sg25
F0.012569732538217809
ssS'WINOKUR JR. HERBERT S'
p329
(dp330
g3
F0.0
sg4
F0.0
sg5
F0.006176698154858959
sg6
F0.0
sg7
F0.000546419820126702
sg8
F0.0
sg9
I0
sg11
F0.0
sg12
F0.9928660826746826
sg13
F0.0
sg14
F0.0
sg15
F0.0
sg16
F0.0
sg17
F0.0
sg18
F108579.0
sg19
F0.0
sg20
F0.0008970347602851445
sg21
F0.0
sg22
F0.1499748016029313
sg23
F0.0
sg24
F0.0008207046145795212
sg25
F0.0
ssS'BROWN MICHAEL'
p331
(dp332
g3
F0.09809228331903097
sg4
F0.0
sg5
F0.2154544222623414
sg6
F0.0
sg7
F0.0003158858489363883
sg8
F0.0
sg9
S'michael.brown@enron.com'
p333
sg11
F0.02462121212121212
sg12
F1.0
sg13
F0.0
sg14
F0.1378373483064662
sg15
F0.0
sg16
F0.002853563474387528
sg17
F0.0
sg18
F0.0
sg19
F0.0
sg20
F0.0008970347602851445
sg21
F0.0016420361247947454
sg22
F0.1499748016029313
sg23
F0.0
sg24
F0.0004759376064029019
sg25
F0.0
ssS'BADUM JAMES P'
p334
(dp335
g3
F0.0
sg4
F178980.0
sg5
F0.015238478250416371
sg6
F0.0
sg7
F0.0030634978980627822
sg8
F0.0
sg9
I0
sg11
F0.0
sg12
F1.0
sg13
F0.0
sg14
F0.0
sg15
F0.0
sg16
F0.0
sg17
F0.0
sg18
F0.0
sg19
F0.0
sg20
F0.006142103383251037
sg21
F0.0
sg22
F0.1499748016029313
sg23
F0.0
sg24
F0.0017619386319167323
sg25
F0.007505942637650726
ssS'HUGHES JAMES A'
p336
(dp337
g3
F0.04746187867185953
sg4
F0.0
sg5
F0.0
sg6
F0.0
sg7
F0.007505763789281673
sg8
F0.0
sg9
S'james.hughes@enron.com'
p338
sg11
F0.06628787878787878
sg12
F1.0
sg13
F0.0
sg14
F0.10668357181669987
sg15
F0.0
sg16
F0.002366369710467706
sg17
F0.0
sg18
F0.0
sg19
F0.0
sg20
F0.023649813970008773
sg21
F0.008210180623973728
sg22
F0.1709021394682908
sg23
F0.0
sg24
F0.0
sg25
F0.02197966576826438
ssS'REYNOLDS LAWRENCE'
p339
(dp340
g3
F0.0
sg4
F51365.0
sg5
F0.036758566726262557
sg6
F0.0
sg7
F0.033721674862925835
sg8
F0.03036672902616184
sg9
I0
sg11
F0.0
sg12
F0.9429286613974602
sg13
F-140264.0
sg14
F0.0
sg15
F0.0
sg16
F0.0
sg17
F0.019503598984104698
sg18
F0.0
sg19
F0.012499999999999999
sg20
F0.0867878333254771
sg21
F0.0
sg22
F0.1615768323081225
sg23
F0.06875001124851295
sg24
F0.0038091520712097214
sg25
F0.12113152106369837
ssS'DIMICHELE RICHARD G'
p341
(dp342
g3
F0.0
sg4
F0.0
sg5
F0.15654629463680753
sg6
F0.0
sg7
F0.0768212480291868
sg8
F0.13504439081329195
sg9
S'richard.dimichele@enron.com'
p343
sg11
F0.0
sg12
F1.0
sg13
F0.0
sg14
F0.0
sg15
F0.0
sg16
F0.0
sg17
F0.036167837981090044
sg18
F0.0
sg19
F0.125
sg20
F0.17011526854964149
sg21
F0.0
sg22
F0.15723183630900145
sg23
F0.23647793761664707
sg24
F0.022867475217915895
sg25
F0.23849025910505717
ssS'BHATNAGAR SANJAY'
p344
(dp345
g3
F0.03452373093933593
sg4
F0.0
sg5
F0.0
sg6
F0.0
sg7
F0.10409342479674688
sg8
F0.0
sg9
S'sanjay.bhatnagar@enron.com'
p346
sg11
F0.0
sg12
F1.0
sg13
F15456290.0
sg14
F0.08386161927187104
sg15
F0.0
sg16
F0.00201837416481069
sg17
F0.013307684013742058
sg18
F137864.0
sg19
F0.0
sg20
F0.0008970347602851445
sg21
F0.0016420361247947454
sg22
F0.0
sg23
F0.0
sg24
F0.14924991207736385
sg25
F0.07582569241103163
ssS'CARTER REBECCA C'
p347
(dp348
g3
F0.02059541883952736
sg4
F0.0
sg5
F0.0
sg6
F0.0
sg7
F0.003629360203737754
sg8
F0.014576029932557683
sg9
S'rebecca.carter@enron.com'
p349
sg11
F0.054924242424242424
sg12
F0.9544022833101148
sg13
F-307301.0
sg14
F0.035500815069733745
sg15
F0.0
sg16
F0.0010439866369710467
sg17
F5.2124915622792834e-05
sg18
F0.0
sg19
F0.0375
sg20
F0.0008970347602851445
sg21
F0.011494252873563218
sg22
F0.1676701686449942
sg23
F0.23559695408267026
sg24
F0.0046114132344779795
sg25
F0.0
ssS'BUCHANAN HAROLD G'
p350
(dp351
g3
F0.07181992210706978
sg4
F0.0
sg5
F0.0026228017642713204
sg6
F0.0
sg7
F0.014218405426837489
sg8
F0.05923795738124326
sg9
S'john.buchanan@enron.com'
p352
sg11
F0.0
sg12
F1.0
sg13
F0.0
sg14
F0.004165911972468755
sg15
F0.0
sg16
F0.00869988864142539
sg17
F0.00011728106015128387
sg18
F0.0
sg19
F0.0625
sg20
F0.021536280207024548
sg21
F0.0
sg22
F0.16086038245362366
sg23
F0.22318579483792242
sg24
F0.010183846157359545
sg25
F0.024032105848123743
ssS'YEAP SOON'
p353
(dp354
g3
F0.0
sg4
F0.0
sg5
F0.24084751467676155
sg6
F0.0
sg7
F0.0017700186870275997
sg8
F0.0
sg9
I0
sg11
F0.0
sg12
F1.0
sg13
F0.0
sg14
F0.0
sg15
F0.0
sg16
F0.0
sg17
F0.0
sg18
F0.0
sg19
F0.0
sg20
F0.004818533100680307
sg21
F0.0
sg22
F0.1499748016029313
sg23
F0.0
sg24
F0.0005320308046579429
sg25
F0.005611850618649192
ssS'MURRAY JULIA H'
p355
(dp356
g3
F0.14469601953924352
sg4
F0.0
sg5
F0.25170154264457106
sg6
F0.0
sg7
F0.00947839243970753
sg8
F0.02429338322092947
sg9
S'julia.murray@enron.com'
p357
sg11
F0.020833333333333336
sg12
F1.0
sg13
F0.0
sg14
F0.0715450099619634
sg15
F0.0
sg16
F0.00313195991091314
sg17
F3.1854115102817845e-05
sg18
F0.0
sg19
F0.049999999999999996
sg20
F0.013051873054679329
sg21
F0.003284072249589491
sg22
F0.16131770802382378
sg23
F0.20632832339564708
sg24
F0.007842754185497455
sg25
F0.011659296693550415
ssS'GARLAND C KEVIN'
p358
(dp359
g3
F0.013796290184170572
sg4
F0.0
sg5
F0.21159453233258876
sg6
F0.0
sg7
F0.016696148400593053
sg8
F0.07293923117078172
sg9
S'kevin.garland@enron.com'
p360
sg11
F0.01893939393939394
sg12
F1.0
sg13
F0.0
sg14
F0.0322405361347582
sg15
F0.0
sg16
F0.003062360801781737
sg17
F0.00587023077534171
sg18
F0.0
sg19
F0.10625
sg20
F0.01912850895196666
sg21
F0.04433497536945813
sg22
F0.16494107168276
sg23
F0.20872380671275256
sg24
F0.015126227608431004
sg25
F0.01852331684658003
ssS'DODSON KEITH'
p361
(dp362
g3
F0.011617928576143641
sg4
F0.0
sg5
F0.12311431481489578
sg6
F0.0
sg7
F0.0021060960906702925
sg8
F0.0
sg9
S'keith.dodson@enron.com'
p363
sg11
F0.01893939393939394
sg12
F1.0
sg13
F0.0
sg14
F0.020648433254845135
sg15
F0.0
sg16
F0.0009743875278396436
sg17
F7.47123790593364e-05
sg18
F0.0
sg19
F0.008749999999999999
sg20
F0.0008970347602851445
sg21
F0.0049261083743842365
sg22
F0.1499748016029313
sg23
F0.19887640853879116
sg24
F0.0030894325947522895
sg25
F0.0
ssS'YEAGER F SCOTT'
p364
(dp365
g3
F0.0
sg4
F0.0
sg5
F0.2358204779619082
sg6
F1.0
sg7
F0.0826444462092572
sg8
F0.0
sg9
S'scott.yeager@enron.com'
p366
sg11
F0.0
sg12
F1.0
sg13
F0.0
sg14
F0.0
sg15
F0.0
sg16
F0.0
sg17
F0.014281261604429999
sg18
F0.0
sg19
F0.0
sg20
F0.2426823758252377
sg21
F0.0
sg22
F0.3559040949928896
sg23
F0.14254385570227615
sg24
F0.0034791494803393433
sg25
F0.24189062286016133
ssS'HIRKO JOSEPH'
p367
(dp368
g3
F0.0
sg4
F10259.0
sg5
F0.34086805995724834
sg6
F1.0
sg7
F0.226735364492332
sg8
F0.0
sg9
S'joe.hirko@enron.com'
p369
sg11
F0.0
sg12
F1.0
sg13
F0.0
sg14
F0.0
sg15
F0.0
sg16
F0.0
sg17
F0.00027568288707165986
sg18
F0.0
sg19
F0.0
sg20
F0.6268065633738387
sg21
F0.0
sg22
F0.1499748016029313
sg23
F0.0
sg24
F0.0008796174399460223
sg25
F0.8957063016414396
ssS'DIETRICH JANET R'
p370
(dp371
g3
F0.16978018351046276
sg4
F0.0
sg5
F0.01519039355140473
sg6
F0.0
sg7
F0.022626686280165606
sg8
F0.10813781694605354
sg9
S'janet.dietrich@enron.com'
p372
sg11
F0.5776515151515151
sg12
F1.0
sg13
F0.0
sg14
F0.34450280746241624
sg15
F0.0
sg16
F0.004384743875278397
sg17
F4.565756498070558e-05
sg18
F0.0
sg19
F0.075
sg20
F0.0388406509795476
sg21
F0.022988505747126436
sg22
F0.1681174171596938
sg23
F0.22506024703534191
sg24
F0.013619803199104502
sg25
F0.04512640245316927
ssS'DERRICK JR. JAMES V'
p373
(dp374
g3
F0.14396989900323454
sg4
F0.0
sg5
F0.22348019566101163
sg6
F0.0
sg7
F0.07121263496321278
sg8
F0.09406397983143891
sg9
S'james.derrick@enron.com'
p375
sg11
F0.12121212121212122
sg12
F0.6336020061716945
sg13
F-1787380.0
sg14
F0.2537583771055968
sg15
F0.0
sg16
F0.06326559020044543
sg17
F0.0007222196642402519
sg18
F0.0
sg19
F0.09999999999999999
sg20
F0.18057482853286244
sg21
F0.03284072249589491
sg22
F0.2528978156628998
sg23
F0.44307892496611945
sg24
F0.00532041426540897
sg25
F0.2571274677725741
ssS'FREVERT MARK A'
p376
(dp377
g3
F0.21618588685721832
sg4
F6426990.0
sg5
F0.38024942844778226
sg6
F0.0
sg7
F0.2116448994381325
sg8
F0.31426134316366705
sg9
S'mark.frevert@enron.com'
p378
sg11
F0.45833333333333337
sg12
F0.03920087570261943
sg13
F0.0
sg14
F0.5395761637384532
sg15
F2000000.0
sg16
F0.0014615812917594653
sg17
F0.7169705887094151
sg18
F0.0
sg19
F0.25
sg20
F0.29837301090888096
sg21
F0.009852216748768473
sg22
F0.3911715435008635
sg23
F0.9547125869959991
sg24
F0.16659486756602535
sg25
F0.3037557167172697
ssS'PAI LOU L'
p379
(dp380
g3
F0.0
sg4
F0.0
sg5
F0.140088213566005
sg6
F0.0
sg7
F0.17901000635161118
sg8
F0.0
sg9
S'lou.pai@enron.com'
p381
sg11
F0.0
sg12
F1.0
sg13
F0.0
sg14
F0.0
sg15
F0.0
sg16
F0.0
sg17
F0.17659313288986614
sg18
F0.0
sg19
F0.125
sg20
F0.48545265873774984
sg21
F0.0
sg22
F0.6367693098264996
sg23
F0.23565994575517116
sg24
F0.03016018967901954
sg25
F0.4473039255645913
ssS'BAY FRANKLIN R'
p382
(dp383
g3
F0.0
sg4
F260455.0
sg5
F0.5645231090692114
sg6
F0.0
sg7
F0.005990931020199229
sg8
F0.0
sg9
S'frank.bay@enron.com'
p384
sg11
F0.0
sg12
F0.9424603910642264
sg13
F-82782.0
sg14
F0.0
sg15
F0.0
sg16
F0.0
sg17
F6.66040588513464e-06
sg18
F0.0
sg19
F0.049999999999999996
sg20
F0.0021790012489479277
sg21
F0.0
sg22
F0.1583701980815129
sg23
F0.21567538771374423
sg24
F0.007992445485092849
sg25
F0.0
ssS'HAYSLETT RODERICK J'
p385
(dp386
g3
F0.1748630272625256
sg4
F0.0
sg5
F0.0
sg6
F0.0
sg7
F0.0018660049142090185
sg8
F0.0
sg9
S'rod.hayslett@enron.com'
p387
sg11
F0.06628787878787878
sg12
F1.0
sg13
F0.0
sg14
F0.10342329288172432
sg15
F0.0
sg16
F0.0738446547884187
sg17
F0.0
sg18
F0.0
sg19
F0.0
sg20
F0.00794960004513147
sg21
F0.06239737274220033
sg22
F0.1699367575513423
sg23
F0.0
sg24
F0.0
sg25
F0.0
ssS'FUGH JOHN L'
p388
(dp389
g3
F0.0
sg4
F50591.0
sg5
F0.0
sg6
F0.0
sg7
F0.001620437676337655
sg8
F0.0
sg9
I0
sg11
F0.0
sg12
F1.0
sg13
F0.0
sg14
F0.0
sg15
F0.0
sg16
F0.0
sg17
F0.0
sg18
F0.0
sg19
F0.0
sg20
F0.004485295866346724
sg21
F0.0
sg22
F0.1499748016029313
sg23
F0.0
sg24
F0.0004885197095749312
sg25
F0.005134972288652648
ssS'FALLON JAMES B'
p390
(dp391
g3
F0.11584923097234141
sg4
F0.0
sg5
F0.41931606072660355
sg6
F0.0
sg7
F0.03944251892781331
sg8
F0.07275324102884227
sg9
S'jim.fallon@enron.com'
p392
sg11
F0.07954545454545454
sg12
F1.0
sg13
F0.0
sg14
F0.29052707842782105
sg15
F0.0
sg16
F0.005219933184855234
sg17
F0.03875400601695276
sg18
F0.0
sg19
F0.3125
sg20
F0.048347718040041815
sg21
F0.06075533661740558
sg22
F0.23013875702341977
sg23
F0.27409296491003887
sg24
F0.03549968470871702
sg25
F0.027374126247103794
ssS'KOENIG MARK E'
p393
(dp394
g3
F0.15671001386230116
sg4
F0.0
sg5
F0.5552340194874171
sg6
F1.0
sg7
F0.02231568094891906
sg8
F0.05830411973023073
sg9
S'mark.koenig@enron.com'
p395
sg11
F0.10037878787878789
sg12
F1.0
sg13
F0.0
sg14
F0.411338525629415
sg15
F0.0
sg16
F0.00424554565701559
sg17
F0.014523352879211415
sg18
F0.0
sg19
F0.0875
sg20
F0.03995892840914762
sg21
F0.02463054187192118
sg22
F0.22185691456453532
sg23
F0.27891452749946455
sg24
F0.0153285455099355
sg25
F0.01955658234169037
ssS'SAVAGE FRANK'
p396
(dp397
g3
F0.0
sg4
F0.0
sg5
F0.0
sg6
F0.0
sg7
F3.468553695551435e-05
sg8
F0.0
sg9
I0
sg11
F0.0
sg12
F0.9653907988446478
sg13
F0.0
sg14
F0.0
sg15
F0.0
sg16
F0.0
sg17
F0.0
sg18
F125034.0
sg19
F0.0
sg20
F0.0008970347602851445
sg21
F0.0
sg22
F0.1499748016029313
sg23
F0.0
sg24
F3.621096461635453e-05
sg25
F0.0
ssS'IZZO LAWRENCE L'
p398
(dp399
g3
F0.03274143507822299
sg4
F0.0
sg5
F0.12280394993945701
sg6
F0.0
sg7
F0.048359365016177845
sg8
F0.06073345805232368
sg9
S'larry.izzo@enron.com'
p400
sg11
F0.05303030303030303
sg12
F1.0
sg13
F0.0
sg14
F0.07915232747690636
sg15
F0.0
sg16
F0.0013223830734966592
sg17
F0.149977764862382
sg18
F0.0
sg19
F0.0
sg20
F0.11929960124848815
sg21
F0.008210180623973728
sg22
F0.36043024765832266
sg23
F0.07673645544059075
sg24
F0.01911548818951386
sg25
F0.0630356292744369
ssS'TILNEY ELIZABETH A'
p401
(dp402
g3
F0.03036504059673906
sg4
F0.0
sg5
F0.0
sg6
F0.0
sg7
F0.010321292305018912
sg8
F0.05344544308604483
sg9
S'elizabeth.tilney@enron.com'
p403
sg11
F0.01893939393939394
sg12
F0.8359199015176981
sg13
F0.0
sg14
F0.06864698424198515
sg15
F0.0
sg16
F0.0013223830734966592
sg17
F0.014677507490784749
sg18
F0.0
sg19
F0.0375
sg20
F0.024659860502987633
sg21
F0.0180623973727422
sg22
F0.1831883158672049
sg23
F0.22257477561466374
sg24
F0.0038566415442719162
sg25
F0.017213327998196363
ssS'MARTIN AMANDA K'
p404
(dp405
g3
F0.1004686778005149
sg4
F85430.0
sg5
F0.03589304214405302
sg6
F0.0
sg7
F0.07052565101911741
sg8
F1.0
sg9
S'a..martin@enron.com'
p406
sg11
F0.015151515151515152
sg12
F1.0
sg13
F0.0
sg14
F0.08639739177685202
sg15
F0.0
sg16
F0.016007795100222717
sg17
F0.2720586609939314
sg18
F0.0
sg19
F0.0
sg20
F0.043015657816708984
sg21
F0.0
sg22
F0.1499748016029313
sg23
F0.3144967235331489
sg24
F0.08118030904136704
sg25
F0.06027375261671699
ssS'BUY RICHARD B'
p407
(dp408
g3
F0.2325566043963298
sg4
F649584.0
sg5
F0.0
sg6
F0.0
sg7
F0.039426240979263616
sg8
F0.14962042074584964
sg9
S'rick.buy@enron.com'
p409
sg11
F0.29545454545454547
sg12
F0.80171647757981
sg13
F0.0
sg14
F0.4225683752943307
sg15
F0.0
sg16
F0.07328786191536749
sg17
F0.038666262408987725
sg18
F0.0
sg19
F0.11249999999999999
sg20
F0.07097186116718356
sg21
F0.11658456486042693
sg22
F0.20189507378247287
sg23
F0.29745207683544234
sg24
F0.02274726447164683
sg25
F0.07403006208385232
ssS'GRAMM WENDY L'
p410
(dp411
g3
F0.0
sg4
F0.0
sg5
F0.0
sg6
F0.0
sg7
F0.000763837236528328
sg8
F0.0
sg9
I0
sg11
F0.0
sg12
F1.0
sg13
F0.0
sg14
F0.0
sg15
F0.0
sg16
F0.0
sg17
F0.0
sg18
F119292.0
sg19
F0.0
sg20
F0.0008970347602851445
sg21
F0.0
sg22
F0.1499748016029313
sg23
F0.0
sg24
F0.0011519142376037773
sg25
F0.0
ssS'CAUSEY RICHARD A'
p412
(dp413
g3
F0.12489273219354413
sg4
F0.0
sg5
F0.13408636886209746
sg6
F1.0
sg7
F0.02613509777628424
sg8
F0.06802147301860252
sg9
S'richard.causey@enron.com'
p414
sg11
F0.10984848484848485
sg12
F0.9329411771420157
sg13
F0.0
sg14
F0.28708567288534687
sg15
F0.0
sg16
F0.0034103563474387525
sg17
F0.029720372029036667
sg18
F0.0
sg19
F0.125
sg20
F0.05179938849950292
sg21
F0.019704433497536946
sg22
F0.29405153141300355
sg23
F0.3736207073424893
sg24
F0.01804520795054119
sg25
F0.0
ssS'TAYLOR MITCHELL S'
p415
(dp416
g3
F0.03518384051752591
sg4
F227449.0
sg5
F0.0
sg6
F0.0
sg7
F0.0337661734545435
sg8
F0.0
sg9
S'mitchell.taylor@enron.com'
p417
sg11
F0.0
sg12
F1.0
sg13
F0.0
sg14
F0.054337982249592465
sg15
F0.0
sg16
F0.00201837416481069
sg17
F0.0
sg18
F0.0
sg19
F0.075
sg20
F0.0770868661379723
sg21
F0.0
sg22
F0.18244008010049875
sg23
F0.23866104900932097
sg24
F0.01055103499482661
sg25
F0.09261716650192335
ssS'DONAHUE JR JEFFREY M'
p418
(dp419
g3
F0.057099478513433236
sg4
F0.0
sg5
F0.4208198004047858
sg6
F0.0
sg7
F0.01342149729404439
sg8
F0.0
sg9
S'jeff.donahue@enron.com'
p420
sg11
F0.3560606060606061
sg12
F0.9143929920961903
sg13
F0.0
sg14
F0.13982974098895126
sg15
F0.0
sg16
F0.0015311804008908685
sg17
F8.600611077760817e-05
sg18
F0.0
sg19
F0.09999999999999999
sg20
F0.02288882056417959
sg21
F0.0180623973727422
sg22
F0.1681174171596938
sg23
F0.25070775643459936
sg24
F0.008456563832644972
sg25
F0.022298574512268174
ssS'GLISAN JR BEN F'
p421
(dp422
g3
F0.05762756617598522
sg4
F0.0
sg5
F0.550692201098954
sg6
F1.0
sg7
F0.013466539431040547
sg8
F0.01380311165200059
sg9
S'ben.glisan@enron.com'
p423
sg11
F0.09848484848484848
sg12
F1.0
sg13
F0.0
sg14
F0.1583046549538127
sg15
F0.0
sg16
F0.0011135857461024498
sg17
F0.01933525481216738
sg18
F0.0
sg19
F0.075
sg20
F0.016735894091266437
sg21
F0.009852216748768473
sg22
F0.17265209213492153
sg23
F0.24744478779905296
sg24
F0.01228550157492107
sg25
F0.011200759837784508
ss.