(dp0
S'METTS MARK'
p1
(dp2
S'salary'
p3
F365788.0
sS'to_messages'
p4
F807.0
sS'deferral_payments'
p5
F0.0
sS'total_payments'
p6
F1061827.0
sS'loan_advances'
p7
F0.0
sS'bonus'
p8
F600000.0
sS'email_address'
p9
S'mark.metts@enron.com'
p10
sS'restricted_stock_deferred'
p11
F0.0
sS'total_stock_value'
p12
F585062.0
sS'shared_receipt_with_poi'
p13
F702.0
sS'long_term_incentive'
p14
F0.0
sS'exercised_stock_options'
p15
F0.0
sS'from_messages'
p16
F29.0
sS'other'
p17
F1740.0
sS'from_poi_to_this_person'
p18
F38.0
sS'from_this_person_to_poi'
p19
F1.0
sS'poi'
p20
I00
sS'deferred_income'
p21
F0.0
sS'expenses'
p22
F94299.0
sS'restricted_stock'
p23
F585062.0
sS'director_fees'
p24
F0.0
ssS'BAXTER JOHN C'
p25
(dp26
g3
F267102.0
sg4
F0.0
sg5
F1295738.0
sg6
F5634343.0
sg7
F0.0
sg8
F1200000.0
sg9
I0
sg11
F0.0
sg12
F10623258.0
sg13
F0.0
sg14
F1586055.0
sg15
F6680544.0
sg16
F0.0
sg17
F2660303.0
sg18
F0.0
sg19
F0.0
sg20
I00
sg21
F-1386055.0
sg22
F11200.0
sg23
F3942714.0
sg24
F0.0
ssS'ELLIOTT STEVEN'
p27
(dp28
g3
F170941.0
sg4
F0.0
sg5
F0.0
sg6
F211725.0
sg7
F0.0
sg8
F350000.0
sg9
S'steven.elliott@enron.com'
p29
sg11
F0.0
sg12
F6678735.0
sg13
F0.0
sg14
F0.0
sg15
F4890344.0
sg16
F0.0
sg17
F12961.0
sg18
F0.0
sg19
F0.0
sg20
I00
sg21
F-400729.0
sg22
F78552.0
sg23
F1788391.0
sg24
F0.0
ssS'CORDES WILLIAM R'
p30
(dp31
g3
F0.0
sg4
F764.0
sg5
F0.0
sg6
F0.0
sg7
F0.0
sg8
F0.0
sg9
S'bill.cordes@enron.com'
p32
sg11
F0.0
sg12
F1038185.0
sg13
F58.0
sg14
F0.0
sg15
F651850.0
sg16
F12.0
sg17
F0.0
sg18
F10.0
sg19
F0.0
sg20
I00
sg21
F0.0
sg22
F0.0
sg23
F386335.0
sg24
F0.0
ssS'HANNON KEVIN P'
p33
(dp34
g3
F243293.0
sg4
F1045.0
sg5
F0.0
sg6
F288682.0
sg7
F0.0
sg8
F1500000.0
sg9
S'kevin.hannon@enron.com'
p35
sg11
F0.0
sg12
F6391065.0
sg13
F1035.0
sg14
F1617011.0
sg15
F5538001.0
sg16
F32.0
sg17
F11350.0
sg18
F32.0
sg19
F21.0
sg20
I01
sg21
F-3117011.0
sg22
F34039.0
sg23
F853064.0
sg24
F0.0
ssS'MORDAUNT KRISTINA M'
p36
(dp37
g3
F267093.0
sg4
F0.0
sg5
F0.0
sg6
F628522.0
sg7
F0.0
sg8
F325000.0
sg9
S'kristina.mordaunt@enron.com'
p38
sg11
F0.0
sg12
F208510.0
sg13
F0.0
sg14
F0.0
sg15
F0.0
sg16
F0.0
sg17
F1411.0
sg18
F0.0
sg19
F0.0
sg20
I00
sg21
F0.0
sg22
F35018.0
sg23
F208510.0
sg24
F0.0
ssS'MEYER ROCKFORD G'
p39
(dp40
g3
F0.0
sg4
F232.0
sg5
F1848227.0
sg6
F1848227.0
sg7
F0.0
sg8
F0.0
sg9
S'rockford.meyer@enron.com'
p41
sg11
F0.0
sg12
F955873.0
sg13
F22.0
sg14
F0.0
sg15
F493489.0
sg16
F28.0
sg17
F0.0
sg18
F0.0
sg19
F0.0
sg20
I00
sg21
F0.0
sg22
F0.0
sg23
F462384.0
sg24
F0.0
ssS'MCMAHON JEFFREY'
p42
(dp43
g3
F370448.0
sg4
F2355.0
sg5
F0.0
sg6
F4099771.0
sg7
F0.0
sg8
F2600000.0
sg9
S'jeffrey.mcmahon@enron.com'
p44
sg11
F0.0
sg12
F1662855.0
sg13
F2228.0
sg14
F694862.0
sg15
F1104054.0
sg16
F48.0
sg17
F297353.0
sg18
F58.0
sg19
F26.0
sg20
I00
sg21
F0.0
sg22
F137108.0
sg23
F558801.0
sg24
F0.0
ssS'HORTON STANLEY C'
p45
(dp46
g3
F0.0
sg4
F2350.0
sg5
F3131860.0
sg6
F3131860.0
sg7
F0.0
sg8
F0.0
sg9
S'stanley.horton@enron.com'
p47
sg11
F0.0
sg12
F7256648.0
sg13
F1074.0
sg14
F0.0
sg15
F5210569.0
sg16
F1073.0
sg17
F0.0
sg18
F44.0
sg19
F15.0
sg20
I00
sg21
F0.0
sg22
F0.0
sg23
F2046079.0
sg24
F0.0
ssS'PIPER GREGORY F'
p48
(dp49
g3
F197091.0
sg4
F1238.0
sg5
F1130036.0
sg6
F1737629.0
sg7
F0.0
sg8
F400000.0
sg9
S'greg.piper@enron.com'
p50
sg11
F-409554.0
sg12
F880290.0
sg13
F742.0
sg14
F0.0
sg15
F880290.0
sg16
F222.0
sg17
F778.0
sg18
F61.0
sg19
F48.0
sg20
I00
sg21
F-33333.0
sg22
F43057.0
sg23
F409554.0
sg24
F0.0
ssS'HUMPHREY GENE E'
p51
(dp52
g3
F130724.0
sg4
F128.0
sg5
F2964506.0
sg6
F3100224.0
sg7
F0.0
sg8
F0.0
sg9
S'gene.humphrey@enron.com'
p53
sg11
F0.0
sg12
F2282768.0
sg13
F119.0
sg14
F0.0
sg15
F2282768.0
sg16
F17.0
sg17
F0.0
sg18
F10.0
sg19
F17.0
sg20
I00
sg21
F0.0
sg22
F4994.0
sg23
F0.0
sg24
F0.0
ssS'UMANOFF ADAM S'
p54
(dp55
g3
F288589.0
sg4
F111.0
sg5
F0.0
sg6
F1130461.0
sg7
F0.0
sg8
F788750.0
sg9
S'adam.umanoff@enron.com'
p56
sg11
F0.0
sg12
F0.0
sg13
F41.0
sg14
F0.0
sg15
F0.0
sg16
F18.0
sg17
F0.0
sg18
F12.0
sg19
F0.0
sg20
I00
sg21
F0.0
sg22
F53122.0
sg23
F0.0
sg24
F0.0
ssS'BLACHMAN JEREMY M'
p57
(dp58
g3
F248546.0
sg4
F2475.0
sg5
F0.0
sg6
F2014835.0
sg7
F0.0
sg8
F850000.0
sg9
S'jeremy.blachman@enron.com'
p59
sg11
F0.0
sg12
F954354.0
sg13
F2326.0
sg14
F831809.0
sg15
F765313.0
sg16
F14.0
sg17
F272.0
sg18
F25.0
sg19
F2.0
sg20
I00
sg21
F0.0
sg22
F84208.0
sg23
F189041.0
sg24
F0.0
ssS'SUNDE MARTIN'
p60
(dp61
g3
F257486.0
sg4
F2647.0
sg5
F0.0
sg6
F1545059.0
sg7
F0.0
sg8
F700000.0
sg9
S'marty.sunde@enron.com'
p62
sg11
F0.0
sg12
F698920.0
sg13
F2565.0
sg14
F476451.0
sg15
F0.0
sg16
F38.0
sg17
F111122.0
sg18
F37.0
sg19
F13.0
sg20
I00
sg21
F0.0
sg22
F0.0
sg23
F698920.0
sg24
F0.0
ssS'GIBBS DANA R'
p63
(dp64
g3
F0.0
sg4
F169.0
sg5
F504610.0
sg6
F966522.0
sg7
F0.0
sg8
F0.0
sg9
S'dana.gibbs@enron.com'
p65
sg11
F0.0
sg12
F2218275.0
sg13
F23.0
sg14
F461912.0
sg15
F2218275.0
sg16
F12.0
sg17
F0.0
sg18
F0.0
sg19
F0.0
sg20
I00
sg21
F0.0
sg22
F0.0
sg23
F0.0
sg24
F0.0
ssS'LOWRY CHARLES P'
p66
(dp67
g3
F0.0
sg4
F0.0
sg5
F0.0
sg6
F0.0
sg7
F0.0
sg8
F0.0
sg9
I0
sg11
F-153686.0
sg12
F372205.0
sg13
F0.0
sg14
F0.0
sg15
F372205.0
sg16
F0.0
sg17
F0.0
sg18
F0.0
sg19
F0.0
sg20
I00
sg21
F0.0
sg22
F0.0
sg23
F153686.0
sg24
F0.0
ssS'COLWELL WESLEY'
p68
(dp69
g3
F288542.0
sg4
F1758.0
sg5
F27610.0
sg6
F1490344.0
sg7
F0.0
sg8
F1200000.0
sg9
S'wes.colwell@enron.com'
p70
sg11
F0.0
sg12
F698242.0
sg13
F1132.0
sg14
F0.0
sg15
F0.0
sg16
F40.0
sg17
F101740.0
sg18
F240.0
sg19
F11.0
sg20
I01
sg21
F-144062.0
sg22
F16514.0
sg23
F698242.0
sg24
F0.0
ssS'MULLER MARK S'
p71
(dp72
g3
F251654.0
sg4
F136.0
sg5
F842924.0
sg6
F3202070.0
sg7
F0.0
sg8
F1100000.0
sg9
S's..muller@enron.com'
p73
sg11
F0.0
sg12
F1416848.0
sg13
F114.0
sg14
F1725545.0
sg15
F1056320.0
sg16
F16.0
sg17
F947.0
sg18
F12.0
sg19
F0.0
sg20
I00
sg21
F-719000.0
sg22
F0.0
sg23
F360528.0
sg24
F0.0
ssS'JACKSON CHARLENE R'
p74
(dp75
g3
F288558.0
sg4
F258.0
sg5
F0.0
sg6
F551174.0
sg7
F0.0
sg8
F250000.0
sg9
S'charlene.jackson@enron.com'
p76
sg11
F0.0
sg12
F725735.0
sg13
F117.0
sg14
F0.0
sg15
F185063.0
sg16
F56.0
sg17
F2435.0
sg18
F25.0
sg19
F19.0
sg20
I00
sg21
F0.0
sg22
F10181.0
sg23
F540672.0
sg24
F0.0
ssS'WESTFAHL RICHARD K'
p77
(dp78
g3
F63744.0
sg4
F0.0
sg5
F0.0
sg6
F762135.0
sg7
F0.0
sg8
F0.0
sg9
S'dick.westfahl@enron.com'
p79
sg11
F0.0
sg12
F384930.0
sg13
F0.0
sg14
F256191.0
sg15
F0.0
sg16
F0.0
sg17
F401130.0
sg18
F0.0
sg19
F0.0
sg20
I00
sg21
F-10800.0
sg22
F51870.0
sg23
F384930.0
sg24
F0.0
ssS'WALTERS GARETH W'
p80
(dp81
g3
F0.0
sg4
F0.0
sg5
F53625.0
sg6
F87410.0
sg7
F0.0
sg8
F0.0
sg9
I0
sg11
F0.0
sg12
F1030329.0
sg13
F0.0
sg14
F0.0
sg15
F1030329.0
sg16
F0.0
sg17
F0.0
sg18
F0.0
sg19
F0.0
sg20
I00
sg21
F0.0
sg22
F33785.0
sg23
F0.0
sg24
F0.0
ssS'WALLS JR ROBERT H'
p82
(dp83
g3
F357091.0
sg4
F671.0
sg5
F0.0
sg6
F1798780.0
sg7
F0.0
sg8
F850000.0
sg9
S'rob.walls@enron.com'
p84
sg11
F0.0
sg12
F5898997.0
sg13
F215.0
sg14
F540751.0
sg15
F4346544.0
sg16
F146.0
sg17
F2.0
sg18
F17.0
sg19
F0.0
sg20
I00
sg21
F0.0
sg22
F50936.0
sg23
F1552453.0
sg24
F0.0
ssS'KITCHEN LOUISE'
p85
(dp86
g3
F271442.0
sg4
F8305.0
sg5
F0.0
sg6
F3471141.0
sg7
F0.0
sg8
F3100000.0
sg9
S'louise.kitchen@enron.com'
p87
sg11
F0.0
sg12
F547143.0
sg13
F3669.0
sg14
F0.0
sg15
F81042.0
sg16
F1728.0
sg17
F93925.0
sg18
F251.0
sg19
F194.0
sg20
I00
sg21
F0.0
sg22
F5774.0
sg23
F466101.0
sg24
F0.0
ssS'CHAN RONNIE'
p88
(dp89
g3
F0.0
sg4
F0.0
sg5
F0.0
sg6
F0.0
sg7
F0.0
sg8
F0.0
sg9
I0
sg11
F-32460.0
sg12
F0.0
sg13
F0.0
sg14
F0.0
sg15
F0.0
sg16
F0.0
sg17
F0.0
sg18
F0.0
sg19
F0.0
sg20
I00
sg21
F-98784.0
sg22
F0.0
sg23
F32460.0
sg24
F98784.0
ssS'BELFER ROBERT'
p90
(dp91
g3
F0.0
sg4
F0.0
sg5
F-102500.0
sg6
F102500.0
sg7
F0.0
sg8
F0.0
sg9
I0
sg11
F44093.0
sg12
F-44093.0
sg13
F0.0
sg14
F0.0
sg15
F3285.0
sg16
F0.0
sg17
F0.0
sg18
F0.0
sg19
F0.0
sg20
I00
sg21
F0.0
sg22
F0.0
sg23
F0.0
sg24
F3285.0
ssS'SHANKMAN JEFFREY A'
p92
(dp93
g3
F304110.0
sg4
F3221.0
sg5
F0.0
sg6
F3038702.0
sg7
F0.0
sg8
F2000000.0
sg9
S'jeffrey.shankman@enron.com'
p94
sg11
F0.0
sg12
F2072035.0
sg13
F1730.0
sg14
F554422.0
sg15
F1441898.0
sg16
F2681.0
sg17
F1191.0
sg18
F94.0
sg19
F83.0
sg20
I00
sg21
F0.0
sg22
F178979.0
sg23
F630137.0
sg24
F0.0
ssS'WODRASKA JOHN'
p95
(dp96
g3
F0.0
sg4
F0.0
sg5
F0.0
sg6
F189583.0
sg7
F0.0
sg8
F0.0
sg9
S'john.wodraska@enron.com'
p97
sg11
F0.0
sg12
F0.0
sg13
F0.0
sg14
F0.0
sg15
F0.0
sg16
F0.0
sg17
F189583.0
sg18
F0.0
sg19
F0.0
sg20
I00
sg21
F0.0
sg22
F0.0
sg23
F0.0
sg24
F0.0
ssS'BERGSIEKER RICHARD P'
p98
(dp99
g3
F187922.0
sg4
F383.0
sg5
F0.0
sg6
F618850.0
sg7
F0.0
sg8
F250000.0
sg9
S'rick.bergsieker@enron.com'
p100
sg11
F0.0
sg12
F659249.0
sg13
F233.0
sg14
F180250.0
sg15
F0.0
sg16
F59.0
sg17
F427316.0
sg18
F4.0
sg19
F0.0
sg20
I00
sg21
F-485813.0
sg22
F59175.0
sg23
F659249.0
sg24
F0.0
ssS'URQUHART JOHN A'
p101
(dp102
g3
F0.0
sg4
F0.0
sg5
F0.0
sg6
F228656.0
sg7
F0.0
sg8
F0.0
sg9
I0
sg11
F0.0
sg12
F0.0
sg13
F0.0
sg14
F0.0
sg15
F0.0
sg16
F0.0
sg17
F0.0
sg18
F0.0
sg19
F0.0
sg20
I00
sg21
F-36666.0
sg22
F228656.0
sg23
F0.0
sg24
F36666.0
ssS'BIBI PHILIPPE A'
p103
(dp104
g3
F213625.0
sg4
F1607.0
sg5
F0.0
sg6
F2047593.0
sg7
F0.0
sg8
F1000000.0
sg9
S'philippe.bibi@enron.com'
p105
sg11
F0.0
sg12
F1843816.0
sg13
F1336.0
sg14
F369721.0
sg15
F1465734.0
sg16
F40.0
sg17
F425688.0
sg18
F23.0
sg19
F8.0
sg20
I00
sg21
F0.0
sg22
F38559.0
sg23
F378082.0
sg24
F0.0
ssS'PIRO JIM'
p106
(dp107
g3
F0.0
sg4
F58.0
sg5
F0.0
sg6
F0.0
sg7
F0.0
sg8
F0.0
sg9
S'jim.piro@enron.com'
p108
sg11
F0.0
sg12
F47304.0
sg13
F3.0
sg14
F0.0
sg15
F0.0
sg16
F16.0
sg17
F0.0
sg18
F0.0
sg19
F1.0
sg20
I00
sg21
F0.0
sg22
F0.0
sg23
F47304.0
sg24
F0.0
ssS'RIEKER PAULA H'
p109
(dp110
g3
F249201.0
sg4
F1328.0
sg5
F214678.0
sg6
F1099100.0
sg7
F0.0
sg8
F700000.0
sg9
S'paula.rieker@enron.com'
p111
sg11
F0.0
sg12
F1918887.0
sg13
F1258.0
sg14
F0.0
sg15
F1635238.0
sg16
F82.0
sg17
F1950.0
sg18
F35.0
sg19
F48.0
sg20
I01
sg21
F-100000.0
sg22
F33271.0
sg23
F283649.0
sg24
F0.0
ssS'WHALEY DAVID A'
p112
(dp113
g3
F0.0
sg4
F0.0
sg5
F0.0
sg6
F0.0
sg7
F0.0
sg8
F0.0
sg9
I0
sg11
F0.0
sg12
F98718.0
sg13
F0.0
sg14
F0.0
sg15
F98718.0
sg16
F0.0
sg17
F0.0
sg18
F0.0
sg19
F0.0
sg20
I00
sg21
F0.0
sg22
F0.0
sg23
F0.0
sg24
F0.0
ssS'BECK SALLY W'
p114
(dp115
g3
F231330.0
sg4
F7315.0
sg5
F0.0
sg6
F969068.0
sg7
F0.0
sg8
F700000.0
sg9
S'sally.beck@enron.com'
p116
sg11
F0.0
sg12
F126027.0
sg13
F2639.0
sg14
F0.0
sg15
F0.0
sg16
F4343.0
sg17
F566.0
sg18
F144.0
sg19
F386.0
sg20
I00
sg21
F0.0
sg22
F37172.0
sg23
F126027.0
sg24
F0.0
ssS'HAUG DAVID L'
p117
(dp118
g3
F0.0
sg4
F573.0
sg5
F0.0
sg6
F475.0
sg7
F0.0
sg8
F0.0
sg9
S'david.haug@enron.com'
p119
sg11
F0.0
sg12
F2217299.0
sg13
F471.0
sg14
F0.0
sg15
F0.0
sg16
F19.0
sg17
F0.0
sg18
F4.0
sg19
F7.0
sg20
I00
sg21
F0.0
sg22
F475.0
sg23
F2217299.0
sg24
F0.0
ssS'ECHOLS JOHN B'
p120
(dp121
g3
F182245.0
sg4
F0.0
sg5
F0.0
sg6
F2692324.0
sg7
F0.0
sg8
F200000.0
sg9
S'john.echols@enron.com'
p122
sg11
F0.0
sg12
F1008941.0
sg13
F0.0
sg14
F2234774.0
sg15
F601438.0
sg16
F0.0
sg17
F53775.0
sg18
F0.0
sg19
F0.0
sg20
I00
sg21
F0.0
sg22
F21530.0
sg23
F407503.0
sg24
F0.0
ssS'MENDELSOHN JOHN'
p123
(dp124
g3
F0.0
sg4
F0.0
sg5
F0.0
sg6
F148.0
sg7
F0.0
sg8
F0.0
sg9
I0
sg11
F0.0
sg12
F0.0
sg13
F0.0
sg14
F0.0
sg15
F0.0
sg16
F0.0
sg17
F0.0
sg18
F0.0
sg19
F0.0
sg20
I00
sg21
F-103750.0
sg22
F148.0
sg23
F0.0
sg24
F103750.0
ssS'HICKERSON GARY J'
p125
(dp126
g3
F211788.0
sg4
F1320.0
sg5
F0.0
sg6
F2081796.0
sg7
F0.0
sg8
F1700000.0
sg9
S'gary.hickerson@enron.com'
p127
sg11
F0.0
sg12
F441096.0
sg13
F900.0
sg14
F69223.0
sg15
F0.0
sg16
F27.0
sg17
F1936.0
sg18
F40.0
sg19
F1.0
sg20
I00
sg21
F0.0
sg22
F98849.0
sg23
F441096.0
sg24
F0.0
ssS'CLINE KENNETH W'
p128
(dp129
g3
F0.0
sg4
F0.0
sg5
F0.0
sg6
F0.0
sg7
F0.0
sg8
F0.0
sg9
I0
sg11
F-472568.0
sg12
F189518.0
sg13
F0.0
sg14
F0.0
sg15
F0.0
sg16
F0.0
sg17
F0.0
sg18
F0.0
sg19
F0.0
sg20
I00
sg21
F0.0
sg22
F0.0
sg23
F662086.0
sg24
F0.0
ssS'LEWIS RICHARD'
p130
(dp131
g3
F0.0
sg4
F952.0
sg5
F0.0
sg6
F0.0
sg7
F0.0
sg8
F0.0
sg9
S'richard.lewis@enron.com'
p132
sg11
F0.0
sg12
F850477.0
sg13
F739.0
sg14
F0.0
sg15
F850477.0
sg16
F26.0
sg17
F0.0
sg18
F10.0
sg19
F0.0
sg20
I00
sg21
F0.0
sg22
F0.0
sg23
F0.0
sg24
F0.0
ssS'HAYES ROBERT E'
p133
(dp134
g3
F0.0
sg4
F504.0
sg5
F7961.0
sg6
F7961.0
sg7
F0.0
sg8
F0.0
sg9
S'robert.hayes@enron.com'
p135
sg11
F0.0
sg12
F151418.0
sg13
F50.0
sg14
F0.0
sg15
F0.0
sg16
F12.0
sg17
F0.0
sg18
F16.0
sg19
F0.0
sg20
I00
sg21
F0.0
sg22
F0.0
sg23
F151418.0
sg24
F0.0
ssS'KOPPER MICHAEL J'
p136
(dp137
g3
F224305.0
sg4
F0.0
sg5
F0.0
sg6
F2652612.0
sg7
F0.0
sg8
F800000.0
sg9
S'michael.kopper@enron.com'
p138
sg11
F0.0
sg12
F985032.0
sg13
F0.0
sg14
F602671.0
sg15
F0.0
sg16
F0.0
sg17
F907502.0
sg18
F0.0
sg19
F0.0
sg20
I01
sg21
F0.0
sg22
F118134.0
sg23
F985032.0
sg24
F0.0
ssS'LEFF DANIEL P'
p139
(dp140
g3
F273746.0
sg4
F2822.0
sg5
F0.0
sg6
F2664228.0
sg7
F0.0
sg8
F1000000.0
sg9
S'dan.leff@enron.com'
p141
sg11
F0.0
sg12
F360528.0
sg13
F2672.0
sg14
F1387399.0
sg15
F0.0
sg16
F63.0
sg17
F3083.0
sg18
F67.0
sg19
F14.0
sg20
I00
sg21
F0.0
sg22
F0.0
sg23
F360528.0
sg24
F0.0
ssS'LAVORATO JOHN J'
p142
(dp143
g3
F339288.0
sg4
F7259.0
sg5
F0.0
sg6
F10425757.0
sg7
F0.0
sg8
F8000000.0
sg9
S'john.lavorato@enron.com'
p144
sg11
F0.0
sg12
F5167144.0
sg13
F3962.0
sg14
F2035380.0
sg15
F4158995.0
sg16
F2585.0
sg17
F1552.0
sg18
F528.0
sg19
F411.0
sg20
I00
sg21
F0.0
sg22
F49537.0
sg23
F1008149.0
sg24
F0.0
ssS'BERBERIAN DAVID'
p145
(dp146
g3
F216582.0
sg4
F0.0
sg5
F0.0
sg6
F228474.0
sg7
F0.0
sg8
F0.0
sg9
S'david.berberian@enron.com'
p147
sg11
F0.0
sg12
F2493616.0
sg13
F0.0
sg14
F0.0
sg15
F1624396.0
sg16
F0.0
sg17
F0.0
sg18
F0.0
sg19
F0.0
sg20
I00
sg21
F0.0
sg22
F11892.0
sg23
F869220.0
sg24
F0.0
ssS'DETMERING TIMOTHY J'
p148
(dp149
g3
F210500.0
sg4
F0.0
sg5
F875307.0
sg6
F1204583.0
sg7
F0.0
sg8
F425000.0
sg9
S'timothy.detmering@enron.com'
p150
sg11
F-315068.0
sg12
F2027865.0
sg13
F0.0
sg14
F415657.0
sg15
F2027865.0
sg16
F0.0
sg17
F1105.0
sg18
F0.0
sg19
F0.0
sg20
I00
sg21
F-775241.0
sg22
F52255.0
sg23
F315068.0
sg24
F0.0
ssS'WAKEHAM JOHN'
p151
(dp152
g3
F0.0
sg4
F0.0
sg5
F0.0
sg6
F213071.0
sg7
F0.0
sg8
F0.0
sg9
I0
sg11
F0.0
sg12
F0.0
sg13
F0.0
sg14
F0.0
sg15
F0.0
sg16
F0.0
sg17
F0.0
sg18
F0.0
sg19
F0.0
sg20
I00
sg21
F0.0
sg22
F103773.0
sg23
F0.0
sg24
F109298.0
ssS'POWERS WILLIAM'
p153
(dp154
g3
F0.0
sg4
F653.0
sg5
F0.0
sg6
F0.0
sg7
F0.0
sg8
F0.0
sg9
S'ken.powers@enron.com'
p155
sg11
F0.0
sg12
F0.0
sg13
F12.0
sg14
F0.0
sg15
F0.0
sg16
F26.0
sg17
F0.0
sg18
F0.0
sg19
F0.0
sg20
I00
sg21
F-17500.0
sg22
F0.0
sg23
F0.0
sg24
F17500.0
ssS'GOLD JOSEPH'
p156
(dp157
g3
F272880.0
sg4
F0.0
sg5
F0.0
sg6
F2146973.0
sg7
F0.0
sg8
F750000.0
sg9
S'joe.gold@enron.com'
p158
sg11
F0.0
sg12
F877611.0
sg13
F0.0
sg14
F304805.0
sg15
F436515.0
sg16
F0.0
sg17
F819288.0
sg18
F0.0
sg19
F0.0
sg20
I00
sg21
F0.0
sg22
F0.0
sg23
F441096.0
sg24
F0.0
ssS'BANNANTINE JAMES M'
p159
(dp160
g3
F477.0
sg4
F566.0
sg5
F0.0
sg6
F916197.0
sg7
F0.0
sg8
F0.0
sg9
S'james.bannantine@enron.com'
p161
sg11
F-560222.0
sg12
F5243487.0
sg13
F465.0
sg14
F0.0
sg15
F4046157.0
sg16
F29.0
sg17
F864523.0
sg18
F39.0
sg19
F0.0
sg20
I00
sg21
F-5104.0
sg22
F56301.0
sg23
F1757552.0
sg24
F0.0
ssS'DUNCAN JOHN H'
p162
(dp163
g3
F0.0
sg4
F0.0
sg5
F0.0
sg6
F77492.0
sg7
F0.0
sg8
F0.0
sg9
I0
sg11
F0.0
sg12
F371750.0
sg13
F0.0
sg14
F0.0
sg15
F371750.0
sg16
F0.0
sg17
F0.0
sg18
F0.0
sg19
F0.0
sg20
I00
sg21
F-25000.0
sg22
F0.0
sg23
F0.0
sg24
F102492.0
ssS'SHAPIRO RICHARD S'
p164
(dp165
g3
F269076.0
sg4
F15149.0
sg5
F0.0
sg6
F1057548.0
sg7
F0.0
sg8
F650000.0
sg9
S'richard.shapiro@enron.com'
p166
sg11
F0.0
sg12
F987001.0
sg13
F4527.0
sg14
F0.0
sg15
F607837.0
sg16
F1215.0
sg17
F705.0
sg18
F74.0
sg19
F65.0
sg20
I00
sg21
F0.0
sg22
F137767.0
sg23
F379164.0
sg24
F0.0
ssS'SHERRIFF JOHN R'
p167
(dp168
g3
F428780.0
sg4
F3187.0
sg5
F0.0
sg6
F4335388.0
sg7
F0.0
sg8
F1500000.0
sg9
S'john.sherriff@enron.com'
p169
sg11
F0.0
sg12
F3128982.0
sg13
F2103.0
sg14
F554422.0
sg15
F1835558.0
sg16
F92.0
sg17
F1852186.0
sg18
F28.0
sg19
F23.0
sg20
I00
sg21
F0.0
sg22
F0.0
sg23
F1293424.0
sg24
F0.0
ssS'SHELBY REX'
p170
(dp171
g3
F211844.0
sg4
F225.0
sg5
F0.0
sg6
F2003885.0
sg7
F0.0
sg8
F200000.0
sg9
S'rex.shelby@enron.com'
p172
sg11
F0.0
sg12
F2493616.0
sg13
F91.0
sg14
F0.0
sg15
F1624396.0
sg16
F39.0
sg17
F1573324.0
sg18
F13.0
sg19
F14.0
sg20
I01
sg21
F-4167.0
sg22
F22884.0
sg23
F869220.0
sg24
F0.0
ssS'LEMAISTRE CHARLES'
p173
(dp174
g3
F0.0
sg4
F0.0
sg5
F0.0
sg6
F87492.0
sg7
F0.0
sg8
F0.0
sg9
I0
sg11
F0.0
sg12
F412878.0
sg13
F0.0
sg14
F0.0
sg15
F412878.0
sg16
F0.0
sg17
F0.0
sg18
F0.0
sg19
F0.0
sg20
I00
sg21
F-25000.0
sg22
F0.0
sg23
F0.0
sg24
F112492.0
ssS'DEFFNER JOSEPH M'
p175
(dp176
g3
F206121.0
sg4
F714.0
sg5
F0.0
sg6
F1208649.0
sg7
F0.0
sg8
F600000.0
sg9
S'joseph.deffner@enron.com'
p177
sg11
F0.0
sg12
F159211.0
sg13
F552.0
sg14
F335349.0
sg15
F17378.0
sg16
F74.0
sg17
F25553.0
sg18
F115.0
sg19
F4.0
sg20
I00
sg21
F0.0
sg22
F41626.0
sg23
F141833.0
sg24
F0.0
ssS'KISHKILL JOSEPH G'
p178
(dp179
g3
F174246.0
sg4
F0.0
sg5
F0.0
sg6
F704896.0
sg7
F0.0
sg8
F0.0
sg9
S'joe.kishkill@enron.com'
p180
sg11
F0.0
sg12
F1034346.0
sg13
F0.0
sg14
F0.0
sg15
F0.0
sg16
F0.0
sg17
F465357.0
sg18
F0.0
sg19
F0.0
sg20
I00
sg21
F-51042.0
sg22
F116335.0
sg23
F1034346.0
sg24
F0.0
ssS'WHALLEY LAWRENCE G'
p181
(dp182
g3
F510364.0
sg4
F6019.0
sg5
F0.0
sg6
F4677574.0
sg7
F0.0
sg8
F3000000.0
sg9
S'greg.whalley@enron.com'
p183
sg11
F0.0
sg12
F6079137.0
sg13
F3920.0
sg14
F808346.0
sg15
F3282960.0
sg16
F556.0
sg17
F301026.0
sg18
F186.0
sg19
F24.0
sg20
I00
sg21
F0.0
sg22
F57838.0
sg23
F2796177.0
sg24
F0.0
ssS'MCCARTY DANNY J'
p184
(dp185
g3
F0.0
sg4
F1433.0
sg5
F0.0
sg6
F0.0
sg7
F0.0
sg8
F0.0
sg9
S'danny.mccarty@enron.com'
p186
sg11
F0.0
sg12
F758931.0
sg13
F508.0
sg14
F0.0
sg15
F664375.0
sg16
F215.0
sg17
F0.0
sg18
F25.0
sg19
F2.0
sg20
I00
sg21
F0.0
sg22
F0.0
sg23
F94556.0
sg24
F0.0
ssS'MCCONNELL MICHAEL S'
p187
(dp188
g3
F365038.0
sg4
F3329.0
sg5
F0.0
sg6
F2101364.0
sg7
F0.0
sg8
F1100000.0
sg9
S'mike.mcconnell@enron.com'
p189
sg11
F0.0
sg12
F3101279.0
sg13
F2189.0
sg14
F554422.0
sg15
F1623010.0
sg16
F2742.0
sg17
F540.0
sg18
F92.0
sg19
F194.0
sg20
I00
sg21
F0.0
sg22
F81364.0
sg23
F1478269.0
sg24
F0.0
ssS'DELAINEY DAVID W'
p190
(dp191
g3
F365163.0
sg4
F3093.0
sg5
F0.0
sg6
F4747979.0
sg7
F0.0
sg8
F3000000.0
sg9
S'david.delainey@enron.com'
p192
sg11
F0.0
sg12
F3614261.0
sg13
F2097.0
sg14
F1294981.0
sg15
F2291113.0
sg16
F3069.0
sg17
F1661.0
sg18
F66.0
sg19
F609.0
sg20
I01
sg21
F0.0
sg22
F86174.0
sg23
F1323148.0
sg24
F0.0
ssS'SULLIVAN-SHAKLOVITZ COLLEEN'
p193
(dp194
g3
F162779.0
sg4
F0.0
sg5
F181993.0
sg6
F999356.0
sg7
F0.0
sg8
F100000.0
sg9
I0
sg11
F0.0
sg12
F1362375.0
sg13
F0.0
sg14
F554422.0
sg15
F1362375.0
sg16
F0.0
sg17
F162.0
sg18
F0.0
sg19
F0.0
sg20
I00
sg21
F0.0
sg22
F0.0
sg23
F0.0
sg24
F0.0
ssS'WROBEL BRUCE'
p195
(dp196
g3
F0.0
sg4
F0.0
sg5
F0.0
sg6
F0.0
sg7
F0.0
sg8
F0.0
sg9
I0
sg11
F0.0
sg12
F139130.0
sg13
F0.0
sg14
F0.0
sg15
F139130.0
sg16
F0.0
sg17
F0.0
sg18
F0.0
sg19
F0.0
sg20
I00
sg21
F0.0
sg22
F0.0
sg23
F0.0
sg24
F0.0
ssS'LINDHOLM TOD A'
p197
(dp198
g3
F236457.0
sg4
F0.0
sg5
F204075.0
sg6
F875889.0
sg7
F0.0
sg8
F200000.0
sg9
S'tod.lindholm@enron.com'
p199
sg11
F0.0
sg12
F3064208.0
sg13
F0.0
sg14
F175000.0
sg15
F2549361.0
sg16
F0.0
sg17
F2630.0
sg18
F0.0
sg19
F0.0
sg20
I00
sg21
F0.0
sg22
F57727.0
sg23
F514847.0
sg24
F0.0
ssS'MEYER JEROME J'
p200
(dp201
g3
F0.0
sg4
F0.0
sg5
F0.0
sg6
F2151.0
sg7
F0.0
sg8
F0.0
sg9
I0
sg11
F0.0
sg12
F0.0
sg13
F0.0
sg14
F0.0
sg15
F0.0
sg16
F0.0
sg17
F0.0
sg18
F0.0
sg19
F0.0
sg20
I00
sg21
F-38346.0
sg22
F2151.0
sg23
F0.0
sg24
F38346.0
ssS'LAY KENNETH L'
p202
(dp203
g3
F1072321.0
sg4
F4273.0
sg5
F202911.0
sg6
F103559793.0
sg7
F81525000.0
sg8
F7000000.0
sg9
S'kenneth.lay@enron.com'
p204
sg11
F0.0
sg12
F49110078.0
sg13
F2411.0
sg14
F3600000.0
sg15
F34348384.0
sg16
F36.0
sg17
F10359729.0
sg18
F123.0
sg19
F16.0
sg20
I01
sg21
F-300000.0
sg22
F99832.0
sg23
F14761694.0
sg24
F0.0
ssS'BUTTS ROBERT H'
p205
(dp206
g3
F261516.0
sg4
F0.0
sg5
F0.0
sg6
F1271582.0
sg7
F0.0
sg8
F750000.0
sg9
S'bob.butts@enron.com'
p207
sg11
F0.0
sg12
F417619.0
sg13
F0.0
sg14
F175000.0
sg15
F0.0
sg16
F0.0
sg17
F150656.0
sg18
F0.0
sg19
F0.0
sg20
I00
sg21
F-75000.0
sg22
F9410.0
sg23
F417619.0
sg24
F0.0
ssS'OLSON CINDY K'
p208
(dp209
g3
F329078.0
sg4
F1184.0
sg5
F77716.0
sg6
F1321557.0
sg7
F0.0
sg8
F750000.0
sg9
S'cindy.olson@enron.com'
p210
sg11
F0.0
sg12
F2606763.0
sg13
F856.0
sg14
F100000.0
sg15
F1637034.0
sg16
F52.0
sg17
F972.0
sg18
F20.0
sg19
F15.0
sg20
I00
sg21
F0.0
sg22
F63791.0
sg23
F969729.0
sg24
F0.0
ssS'MCDONALD REBECCA'
p211
(dp212
g3
F0.0
sg4
F894.0
sg5
F0.0
sg6
F0.0
sg7
F0.0
sg8
F0.0
sg9
S'rebecca.mcdonald@enron.com'
p213
sg11
F0.0
sg12
F1691366.0
sg13
F720.0
sg14
F0.0
sg15
F757301.0
sg16
F13.0
sg17
F0.0
sg18
F54.0
sg19
F1.0
sg20
I00
sg21
F0.0
sg22
F0.0
sg23
F934065.0
sg24
F0.0
ssS'CUMBERLAND MICHAEL S'
p214
(dp215
g3
F184899.0
sg4
F0.0
sg5
F0.0
sg6
F807956.0
sg7
F0.0
sg8
F325000.0
sg9
I0
sg11
F0.0
sg12
F207940.0
sg13
F0.0
sg14
F275000.0
sg15
F0.0
sg16
F0.0
sg17
F713.0
sg18
F0.0
sg19
F0.0
sg20
I00
sg21
F0.0
sg22
F22344.0
sg23
F207940.0
sg24
F0.0
ssS'GAHN ROBERT S'
p216
(dp217
g3
F192008.0
sg4
F0.0
sg5
F73122.0
sg6
F900585.0
sg7
F0.0
sg8
F509870.0
sg9
I0
sg11
F0.0
sg12
F318607.0
sg13
F0.0
sg14
F0.0
sg15
F83237.0
sg16
F0.0
sg17
F76547.0
sg18
F0.0
sg19
F0.0
sg20
I00
sg21
F-1042.0
sg22
F50080.0
sg23
F235370.0
sg24
F0.0
ssS'MCCLELLAN GEORGE'
p218
(dp219
g3
F263413.0
sg4
F1744.0
sg5
F0.0
sg6
F1318763.0
sg7
F0.0
sg8
F900000.0
sg9
S'george.mcclellan@enron.com'
p220
sg11
F0.0
sg12
F947861.0
sg13
F1469.0
sg14
F0.0
sg15
F506765.0
sg16
F49.0
sg17
F51587.0
sg18
F52.0
sg19
F0.0
sg20
I00
sg21
F-125000.0
sg22
F228763.0
sg23
F441096.0
sg24
F0.0
ssS'HERMANN ROBERT J'
p221
(dp222
g3
F262663.0
sg4
F0.0
sg5
F0.0
sg6
F1297461.0
sg7
F0.0
sg8
F700000.0
sg9
S'robert.hermann@enron.com'
p223
sg11
F0.0
sg12
F668132.0
sg13
F0.0
sg14
F150000.0
sg15
F187500.0
sg16
F0.0
sg17
F416441.0
sg18
F0.0
sg19
F0.0
sg20
I00
sg21
F-280000.0
sg22
F48357.0
sg23
F480632.0
sg24
F0.0
ssS'SCRIMSHAW MATTHEW'
p224
(dp225
g3
F0.0
sg4
F0.0
sg5
F0.0
sg6
F0.0
sg7
F0.0
sg8
F0.0
sg9
S'matthew.scrimshaw@enron.com'
p226
sg11
F0.0
sg12
F759557.0
sg13
F0.0
sg14
F0.0
sg15
F759557.0
sg16
F0.0
sg17
F0.0
sg18
F0.0
sg19
F0.0
sg20
I00
sg21
F0.0
sg22
F0.0
sg23
F0.0
sg24
F0.0
ssS'GATHMANN WILLIAM D'
p227
(dp228
g3
F0.0
sg4
F0.0
sg5
F0.0
sg6
F0.0
sg7
F0.0
sg8
F0.0
sg9
I0
sg11
F-72419.0
sg12
F1945360.0
sg13
F0.0
sg14
F0.0
sg15
F1753766.0
sg16
F0.0
sg17
F0.0
sg18
F0.0
sg19
F0.0
sg20
I00
sg21
F0.0
sg22
F0.0
sg23
F264013.0
sg24
F0.0
ssS'HAEDICKE MARK E'
p229
(dp230
g3
F374125.0
sg4
F4009.0
sg5
F2157527.0
sg6
F3859065.0
sg7
F0.0
sg8
F1150000.0
sg9
S'mark.haedicke@enron.com'
p231
sg11
F-329825.0
sg12
F803094.0
sg13
F1847.0
sg14
F983346.0
sg15
F608750.0
sg16
F1941.0
sg17
F52382.0
sg18
F180.0
sg19
F61.0
sg20
I00
sg21
F-934484.0
sg22
F76169.0
sg23
F524169.0
sg24
F0.0
ssS'BOWEN JR RAYMOND M'
p232
(dp233
g3
F278601.0
sg4
F1858.0
sg5
F0.0
sg6
F2669589.0
sg7
F0.0
sg8
F1350000.0
sg9
S'raymond.bowen@enron.com'
p234
sg11
F0.0
sg12
F252055.0
sg13
F1593.0
sg14
F974293.0
sg15
F0.0
sg16
F27.0
sg17
F1621.0
sg18
F140.0
sg19
F15.0
sg20
I01
sg21
F-833.0
sg22
F65907.0
sg23
F252055.0
sg24
F0.0
ssS'GILLIS JOHN'
p235
(dp236
g3
F0.0
sg4
F0.0
sg5
F0.0
sg6
F0.0
sg7
F0.0
sg8
F0.0
sg9
I0
sg11
F0.0
sg12
F85641.0
sg13
F0.0
sg14
F0.0
sg15
F9803.0
sg16
F0.0
sg17
F0.0
sg18
F0.0
sg19
F0.0
sg20
I00
sg21
F0.0
sg22
F0.0
sg23
F75838.0
sg24
F0.0
ssS'FITZGERALD JAY L'
p237
(dp238
g3
F199157.0
sg4
F936.0
sg5
F0.0
sg6
F1414857.0
sg7
F0.0
sg8
F350000.0
sg9
S'jay.fitzgerald@enron.com'
p239
sg11
F0.0
sg12
F1621236.0
sg13
F723.0
sg14
F556416.0
sg15
F664461.0
sg16
F16.0
sg17
F285414.0
sg18
F1.0
sg19
F8.0
sg20
I00
sg21
F0.0
sg22
F23870.0
sg23
F956775.0
sg24
F0.0
ssS'MORAN MICHAEL P'
p240
(dp241
g3
F0.0
sg4
F672.0
sg5
F0.0
sg6
F0.0
sg7
F0.0
sg8
F0.0
sg9
S'michael.moran@enron.com'
p242
sg11
F0.0
sg12
F221141.0
sg13
F127.0
sg14
F0.0
sg15
F59539.0
sg16
F19.0
sg17
F0.0
sg18
F0.0
sg19
F0.0
sg20
I00
sg21
F0.0
sg22
F0.0
sg23
F161602.0
sg24
F0.0
ssS'REDMOND BRIAN L'
p243
(dp244
g3
F96840.0
sg4
F1671.0
sg5
F0.0
sg6
F111529.0
sg7
F0.0
sg8
F0.0
sg9
S'brian.redmond@enron.com'
p245
sg11
F0.0
sg12
F7890324.0
sg13
F1063.0
sg14
F0.0
sg15
F7509039.0
sg16
F221.0
sg17
F0.0
sg18
F204.0
sg19
F49.0
sg20
I00
sg21
F0.0
sg22
F14689.0
sg23
F381285.0
sg24
F0.0
ssS'BAZELIDES PHILIP J'
p246
(dp247
g3
F80818.0
sg4
F0.0
sg5
F684694.0
sg6
F860136.0
sg7
F0.0
sg8
F0.0
sg9
I0
sg11
F0.0
sg12
F1599641.0
sg13
F0.0
sg14
F93750.0
sg15
F1599641.0
sg16
F0.0
sg17
F874.0
sg18
F0.0
sg19
F0.0
sg20
I00
sg21
F0.0
sg22
F0.0
sg23
F0.0
sg24
F0.0
ssS'BELDEN TIMOTHY N'
p248
(dp249
g3
F213999.0
sg4
F7991.0
sg5
F2144013.0
sg6
F5501630.0
sg7
F0.0
sg8
F5249999.0
sg9
S'tim.belden@enron.com'
p250
sg11
F0.0
sg12
F1110705.0
sg13
F5521.0
sg14
F0.0
sg15
F953136.0
sg16
F484.0
sg17
F210698.0
sg18
F228.0
sg19
F108.0
sg20
I01
sg21
F-2334434.0
sg22
F17355.0
sg23
F157569.0
sg24
F0.0
ssS'DURAN WILLIAM D'
p251
(dp252
g3
F210692.0
sg4
F904.0
sg5
F0.0
sg6
F2093263.0
sg7
F0.0
sg8
F750000.0
sg9
S'w.duran@enron.com'
p253
sg11
F0.0
sg12
F1640910.0
sg13
F599.0
sg14
F1105218.0
sg15
F1451869.0
sg16
F12.0
sg17
F1568.0
sg18
F106.0
sg19
F3.0
sg20
I00
sg21
F0.0
sg22
F25785.0
sg23
F189041.0
sg24
F0.0
ssS'THORN TERENCE H'
p254
(dp255
g3
F222093.0
sg4
F266.0
sg5
F16586.0
sg6
F911453.0
sg7
F0.0
sg8
F0.0
sg9
S'terence.thorn@enron.com'
p256
sg11
F0.0
sg12
F4817796.0
sg13
F73.0
sg14
F200000.0
sg15
F4452476.0
sg16
F41.0
sg17
F426629.0
sg18
F0.0
sg19
F0.0
sg20
I00
sg21
F0.0
sg22
F46145.0
sg23
F365320.0
sg24
F0.0
ssS'FASTOW ANDREW S'
p257
(dp258
g3
F440698.0
sg4
F0.0
sg5
F0.0
sg6
F2424083.0
sg7
F0.0
sg8
F1300000.0
sg9
S'andrew.fastow@enron.com'
p259
sg11
F0.0
sg12
F1794412.0
sg13
F0.0
sg14
F1736055.0
sg15
F0.0
sg16
F0.0
sg17
F277464.0
sg18
F0.0
sg19
F0.0
sg20
I01
sg21
F-1386055.0
sg22
F55921.0
sg23
F1794412.0
sg24
F0.0
ssS'FOY JOE'
p260
(dp261
g3
F0.0
sg4
F57.0
sg5
F181755.0
sg6
F181755.0
sg7
F0.0
sg8
F0.0
sg9
S'tracy.foy@enron.com'
p262
sg11
F0.0
sg12
F343434.0
sg13
F2.0
sg14
F0.0
sg15
F343434.0
sg16
F13.0
sg17
F0.0
sg18
F0.0
sg19
F0.0
sg20
I00
sg21
F0.0
sg22
F0.0
sg23
F0.0
sg24
F0.0
ssS'CALGER CHRISTOPHER F'
p263
(dp264
g3
F240189.0
sg4
F2598.0
sg5
F0.0
sg6
F1639297.0
sg7
F0.0
sg8
F1250000.0
sg9
S'christopher.calger@enron.com'
p265
sg11
F0.0
sg12
F126027.0
sg13
F2188.0
sg14
F375304.0
sg15
F0.0
sg16
F144.0
sg17
F486.0
sg18
F199.0
sg19
F25.0
sg20
I01
sg21
F-262500.0
sg22
F35818.0
sg23
F126027.0
sg24
F0.0
ssS'RICE KENNETH D'
p266
(dp267
g3
F420636.0
sg4
F905.0
sg5
F0.0
sg6
F505050.0
sg7
F0.0
sg8
F1750000.0
sg9
S'ken.rice@enron.com'
p268
sg11
F0.0
sg12
F22542539.0
sg13
F864.0
sg14
F1617011.0
sg15
F19794175.0
sg16
F18.0
sg17
F174839.0
sg18
F42.0
sg19
F4.0
sg20
I01
sg21
F-3504386.0
sg22
F46950.0
sg23
F2748364.0
sg24
F0.0
ssS'KAMINSKI WINCENTY J'
p269
(dp270
g3
F275101.0
sg4
F4607.0
sg5
F0.0
sg6
F1086821.0
sg7
F0.0
sg8
F400000.0
sg9
S'vince.kaminski@enron.com'
p271
sg11
F0.0
sg12
F976037.0
sg13
F583.0
sg14
F323466.0
sg15
F850010.0
sg16
F14368.0
sg17
F4669.0
sg18
F41.0
sg19
F171.0
sg20
I00
sg21
F0.0
sg22
F83585.0
sg23
F126027.0
sg24
F0.0
ssS'LOCKHART EUGENE E'
p272
(dp273
g3
F0.0
sg4
F0.0
sg5
F0.0
sg6
F0.0
sg7
F0.0
sg8
F0.0
sg9
I0
sg11
F0.0
sg12
F0.0
sg13
F0.0
sg14
F0.0
sg15
F0.0
sg16
F0.0
sg17
F0.0
sg18
F0.0
sg19
F0.0
sg20
I00
sg21
F0.0
sg22
F0.0
sg23
F0.0
sg24
F0.0
ssS'COX DAVID'
p274
(dp275
g3
F314288.0
sg4
F102.0
sg5
F0.0
sg6
F1101393.0
sg7
F0.0
sg8
F800000.0
sg9
S'chip.cox@enron.com'
p276
sg11
F0.0
sg12
F495633.0
sg13
F71.0
sg14
F0.0
sg15
F117551.0
sg16
F33.0
sg17
F494.0
sg18
F0.0
sg19
F4.0
sg20
I00
sg21
F-41250.0
sg22
F27861.0
sg23
F378082.0
sg24
F0.0
ssS'OVERDYKE JR JERE C'
p277
(dp278
g3
F94941.0
sg4
F0.0
sg5
F0.0
sg6
F249787.0
sg7
F0.0
sg8
F0.0
sg9
S'jere.overdyke@enron.com'
p279
sg11
F0.0
sg12
F7307594.0
sg13
F0.0
sg14
F135836.0
sg15
F5266578.0
sg16
F0.0
sg17
F176.0
sg18
F0.0
sg19
F0.0
sg20
I00
sg21
F0.0
sg22
F18834.0
sg23
F2041016.0
sg24
F0.0
ssS'PEREIRA PAULO V. FERRAZ'
p280
(dp281
g3
F0.0
sg4
F0.0
sg5
F0.0
sg6
F27942.0
sg7
F0.0
sg8
F0.0
sg9
I0
sg11
F0.0
sg12
F0.0
sg13
F0.0
sg14
F0.0
sg15
F0.0
sg16
F0.0
sg17
F0.0
sg18
F0.0
sg19
F0.0
sg20
I00
sg21
F-101250.0
sg22
F27942.0
sg23
F0.0
sg24
F101250.0
ssS'STABLER FRANK'
p282
(dp283
g3
F239502.0
sg4
F0.0
sg5
F0.0
sg6
F1112087.0
sg7
F0.0
sg8
F500000.0
sg9
S'frank.stabler@enron.com'
p284
sg11
F0.0
sg12
F511734.0
sg13
F0.0
sg14
F0.0
sg15
F0.0
sg16
F0.0
sg17
F356071.0
sg18
F0.0
sg19
F0.0
sg20
I00
sg21
F0.0
sg22
F16514.0
sg23
F511734.0
sg24
F0.0
ssS'SKILLING JEFFREY K'
p285
(dp286
g3
F1111258.0
sg4
F3627.0
sg5
F0.0
sg6
F8682716.0
sg7
F0.0
sg8
F5600000.0
sg9
S'jeff.skilling@enron.com'
p287
sg11
F0.0
sg12
F26093672.0
sg13
F2042.0
sg14
F1920000.0
sg15
F19250000.0
sg16
F108.0
sg17
F22122.0
sg18
F88.0
sg19
F30.0
sg20
I01
sg21
F0.0
sg22
F29336.0
sg23
F6843672.0
sg24
F0.0
ssS'BLAKE JR. NORMAN P'
p288
(dp289
g3
F0.0
sg4
F0.0
sg5
F0.0
sg6
F1279.0
sg7
F0.0
sg8
F0.0
sg9
I0
sg11
F0.0
sg12
F0.0
sg13
F0.0
sg14
F0.0
sg15
F0.0
sg16
F0.0
sg17
F0.0
sg18
F0.0
sg19
F0.0
sg20
I00
sg21
F-113784.0
sg22
F1279.0
sg23
F0.0
sg24
F113784.0
ssS'SHERRICK JEFFREY B'
p290
(dp291
g3
F0.0
sg4
F613.0
sg5
F0.0
sg6
F0.0
sg7
F0.0
sg8
F0.0
sg9
S'jeffrey.sherrick@enron.com'
p292
sg11
F0.0
sg12
F1832468.0
sg13
F583.0
sg14
F0.0
sg15
F1426469.0
sg16
F25.0
sg17
F0.0
sg18
F39.0
sg19
F18.0
sg20
I00
sg21
F0.0
sg22
F0.0
sg23
F405999.0
sg24
F0.0
ssS'PRENTICE JAMES'
p293
(dp294
g3
F0.0
sg4
F0.0
sg5
F564348.0
sg6
F564348.0
sg7
F0.0
sg8
F0.0
sg9
S'james.prentice@enron.com'
p295
sg11
F0.0
sg12
F1095040.0
sg13
F0.0
sg14
F0.0
sg15
F886231.0
sg16
F0.0
sg17
F0.0
sg18
F0.0
sg19
F0.0
sg20
I00
sg21
F0.0
sg22
F0.0
sg23
F208809.0
sg24
F0.0
ssS'GRAY RODNEY'
p296
(dp297
g3
F6615.0
sg4
F0.0
sg5
F93585.0
sg6
F1146658.0
sg7
F0.0
sg8
F0.0
sg9
I0
sg11
F0.0
sg12
F0.0
sg13
F0.0
sg14
F365625.0
sg15
F0.0
sg16
F0.0
sg17
F680833.0
sg18
F0.0
sg19
F0.0
sg20
I00
sg21
F0.0
sg22
F0.0
sg23
F0.0
sg24
F0.0
ssS'PICKERING MARK R'
p298
(dp299
g3
F655037.0
sg4
F898.0
sg5
F0.0
sg6
F1386690.0
sg7
F400000.0
sg8
F300000.0
sg9
S'mark.pickering@enron.com'
p300
sg11
F0.0
sg12
F28798.0
sg13
F728.0
sg14
F0.0
sg15
F28798.0
sg16
F67.0
sg17
F0.0
sg18
F7.0
sg19
F0.0
sg20
I00
sg21
F0.0
sg22
F31653.0
sg23
F0.0
sg24
F0.0
ssS'THE TRAVEL AGENCY IN THE PARK'
p301
(dp302
g3
F0.0
sg4
F0.0
sg5
F0.0
sg6
F362096.0
sg7
F0.0
sg8
F0.0
sg9
I0
sg11
F0.0
sg12
F0.0
sg13
F0.0
sg14
F0.0
sg15
F0.0
sg16
F0.0
sg17
F362096.0
sg18
F0.0
sg19
F0.0
sg20
I00
sg21
F0.0
sg22
F0.0
sg23
F0.0
sg24
F0.0
ssS'NOLES JAMES L'
p303
(dp304
g3
F0.0
sg4
F0.0
sg5
F774401.0
sg6
F774401.0
sg7
F0.0
sg8
F0.0
sg9
I0
sg11
F-94556.0
sg12
F368705.0
sg13
F0.0
sg14
F0.0
sg15
F0.0
sg16
F0.0
sg17
F0.0
sg18
F0.0
sg19
F0.0
sg20
I00
sg21
F0.0
sg22
F0.0
sg23
F463261.0
sg24
F0.0
ssS'KEAN STEVEN J'
p305
(dp306
g3
F404338.0
sg4
F12754.0
sg5
F0.0
sg6
F1747522.0
sg7
F0.0
sg8
F1000000.0
sg9
S'steven.kean@enron.com'
p307
sg11
F0.0
sg12
F6153642.0
sg13
F3639.0
sg14
F300000.0
sg15
F2022048.0
sg16
F6759.0
sg17
F1231.0
sg18
F140.0
sg19
F387.0
sg20
I00
sg21
F0.0
sg22
F41953.0
sg23
F4131594.0
sg24
F0.0
ssS'FOWLER PEGGY'
p308
(dp309
g3
F0.0
sg4
F517.0
sg5
F0.0
sg6
F0.0
sg7
F0.0
sg8
F0.0
sg9
S'kulvinder.fowler@enron.com'
p310
sg11
F0.0
sg12
F1884748.0
sg13
F10.0
sg14
F0.0
sg15
F1324578.0
sg16
F36.0
sg17
F0.0
sg18
F0.0
sg19
F0.0
sg20
I00
sg21
F0.0
sg22
F0.0
sg23
F560170.0
sg24
F0.0
ssS'WASAFF GEORGE'
p311
(dp312
g3
F259996.0
sg4
F400.0
sg5
F831299.0
sg6
F1034395.0
sg7
F0.0
sg8
F325000.0
sg9
S'george.wasaff@enron.com'
p313
sg11
F0.0
sg12
F2056427.0
sg13
F337.0
sg14
F200000.0
sg15
F1668260.0
sg16
F30.0
sg17
F1425.0
sg18
F22.0
sg19
F7.0
sg20
I00
sg21
F-583325.0
sg22
F0.0
sg23
F388167.0
sg24
F0.0
ssS'WHITE JR THOMAS E'
p314
(dp315
g3
F317543.0
sg4
F0.0
sg5
F0.0
sg6
F1934359.0
sg7
F0.0
sg8
F450000.0
sg9
S'thomas.white@enron.com'
p316
sg11
F0.0
sg12
F15144123.0
sg13
F0.0
sg14
F0.0
sg15
F1297049.0
sg16
F0.0
sg17
F1085463.0
sg18
F0.0
sg19
F0.0
sg20
I00
sg21
F0.0
sg22
F81353.0
sg23
F13847074.0
sg24
F0.0
ssS'CHRISTODOULOU DIOMEDES'
p317
(dp318
g3
F0.0
sg4
F0.0
sg5
F0.0
sg6
F0.0
sg7
F0.0
sg8
F0.0
sg9
S'diomedes.christodoulou@enron.com'
p319
sg11
F0.0
sg12
F6077885.0
sg13
F0.0
sg14
F0.0
sg15
F5127155.0
sg16
F0.0
sg17
F0.0
sg18
F0.0
sg19
F0.0
sg20
I00
sg21
F0.0
sg22
F0.0
sg23
F950730.0
sg24
F0.0
ssS'ALLEN PHILLIP K'
p320
(dp321
g3
F201955.0
sg4
F2902.0
sg5
F2869717.0
sg6
F4484442.0
sg7
F0.0
sg8
F4175000.0
sg9
S'phillip.allen@enron.com'
p322
sg11
F-126027.0
sg12
F1729541.0
sg13
F1407.0
sg14
F304805.0
sg15
F1729541.0
sg16
F2195.0
sg17
F152.0
sg18
F47.0
sg19
F65.0
sg20
I00
sg21
F-3081055.0
sg22
F13868.0
sg23
F126027.0
sg24
F0.0
ssS'SHARP VICTORIA T'
p323
(dp324
g3
F248146.0
sg4
F3136.0
sg5
F187469.0
sg6
F1576511.0
sg7
F0.0
sg8
F600000.0
sg9
S'vicki.sharp@enron.com'
p325
sg11
F0.0
sg12
F494136.0
sg13
F2477.0
sg14
F422158.0
sg15
F281073.0
sg16
F136.0
sg17
F2401.0
sg18
F24.0
sg19
F6.0
sg20
I00
sg21
F0.0
sg22
F116337.0
sg23
F213063.0
sg24
F0.0
ssS'JAEDICKE ROBERT'
p326
(dp327
g3
F0.0
sg4
F0.0
sg5
F0.0
sg6
F83750.0
sg7
F0.0
sg8
F0.0
sg9
I0
sg11
F-44093.0
sg12
F431750.0
sg13
F0.0
sg14
F0.0
sg15
F431750.0
sg16
F0.0
sg17
F0.0
sg18
F0.0
sg19
F0.0
sg20
I00
sg21
F-25000.0
sg22
F0.0
sg23
F44093.0
sg24
F108750.0
ssS'WINOKUR JR. HERBERT S'
p328
(dp329
g3
F0.0
sg4
F0.0
sg5
F0.0
sg6
F84992.0
sg7
F0.0
sg8
F0.0
sg9
I0
sg11
F0.0
sg12
F0.0
sg13
F0.0
sg14
F0.0
sg15
F0.0
sg16
F0.0
sg17
F0.0
sg18
F0.0
sg19
F0.0
sg20
I00
sg21
F-25000.0
sg22
F1413.0
sg23
F0.0
sg24
F108579.0
ssS'BROWN MICHAEL'
p330
(dp331
g3
F0.0
sg4
F1486.0
sg5
F0.0
sg6
F49288.0
sg7
F0.0
sg8
F0.0
sg9
S'michael.brown@enron.com'
p332
sg11
F0.0
sg12
F0.0
sg13
F761.0
sg14
F0.0
sg15
F0.0
sg16
F41.0
sg17
F0.0
sg18
F13.0
sg19
F1.0
sg20
I00
sg21
F0.0
sg22
F49288.0
sg23
F0.0
sg24
F0.0
ssS'BADUM JAMES P'
p333
(dp334
g3
F0.0
sg4
F0.0
sg5
F178980.0
sg6
F182466.0
sg7
F0.0
sg8
F0.0
sg9
I0
sg11
F0.0
sg12
F257817.0
sg13
F0.0
sg14
F0.0
sg15
F257817.0
sg16
F0.0
sg17
F0.0
sg18
F0.0
sg19
F0.0
sg20
I00
sg21
F0.0
sg22
F3486.0
sg23
F0.0
sg24
F0.0
ssS'HUGHES JAMES A'
p335
(dp336
g3
F0.0
sg4
F719.0
sg5
F0.0
sg6
F0.0
sg7
F0.0
sg8
F0.0
sg9
S'james.hughes@enron.com'
p337
sg11
F0.0
sg12
F1118394.0
sg13
F589.0
sg14
F0.0
sg15
F754966.0
sg16
F34.0
sg17
F0.0
sg18
F35.0
sg19
F5.0
sg20
I00
sg21
F0.0
sg22
F0.0
sg23
F363428.0
sg24
F0.0
ssS'REYNOLDS LAWRENCE'
p338
(dp339
g3
F76399.0
sg4
F0.0
sg5
F51365.0
sg6
F394475.0
sg7
F0.0
sg8
F100000.0
sg9
I0
sg11
F-140264.0
sg12
F4221891.0
sg13
F0.0
sg14
F156250.0
sg15
F4160672.0
sg16
F0.0
sg17
F202052.0
sg18
F0.0
sg19
F0.0
sg20
I00
sg21
F-200000.0
sg22
F8409.0
sg23
F201483.0
sg24
F0.0
ssS'DIMICHELE RICHARD G'
p340
(dp341
g3
F262788.0
sg4
F0.0
sg5
F0.0
sg6
F2368151.0
sg7
F0.0
sg8
F1000000.0
sg9
S'richard.dimichele@enron.com'
p342
sg11
F0.0
sg12
F8317782.0
sg13
F0.0
sg14
F694862.0
sg15
F8191755.0
sg16
F0.0
sg17
F374689.0
sg18
F0.0
sg19
F0.0
sg20
I00
sg21
F0.0
sg22
F35812.0
sg23
F126027.0
sg24
F0.0
ssS'BHATNAGAR SANJAY'
p343
(dp344
g3
F0.0
sg4
F523.0
sg5
F0.0
sg6
F15456290.0
sg7
F0.0
sg8
F0.0
sg9
S'sanjay.bhatnagar@enron.com'
p345
sg11
F15456290.0
sg12
F0.0
sg13
F463.0
sg14
F0.0
sg15
F2604490.0
sg16
F29.0
sg17
F137864.0
sg18
F0.0
sg19
F1.0
sg20
I00
sg21
F0.0
sg22
F0.0
sg23
F-2604490.0
sg24
F137864.0
ssS'CARTER REBECCA C'
p346
(dp347
g3
F261809.0
sg4
F312.0
sg5
F0.0
sg6
F477557.0
sg7
F0.0
sg8
F300000.0
sg9
S'rebecca.carter@enron.com'
p348
sg11
F-307301.0
sg12
F0.0
sg13
F196.0
sg14
F75000.0
sg15
F0.0
sg16
F15.0
sg17
F540.0
sg18
F29.0
sg19
F7.0
sg20
I00
sg21
F-159792.0
sg22
F0.0
sg23
F307301.0
sg24
F0.0
ssS'BUCHANAN HAROLD G'
p349
(dp350
g3
F248017.0
sg4
F1088.0
sg5
F0.0
sg6
F1054637.0
sg7
F0.0
sg8
F500000.0
sg9
S'john.buchanan@enron.com'
p351
sg11
F0.0
sg12
F1014505.0
sg13
F23.0
sg14
F304805.0
sg15
F825464.0
sg16
F125.0
sg17
F1215.0
sg18
F0.0
sg19
F0.0
sg20
I00
sg21
F0.0
sg22
F600.0
sg23
F189041.0
sg24
F0.0
ssS'YEAP SOON'
p352
(dp353
g3
F0.0
sg4
F0.0
sg5
F0.0
sg6
F55097.0
sg7
F0.0
sg8
F0.0
sg9
I0
sg11
F0.0
sg12
F192758.0
sg13
F0.0
sg14
F0.0
sg15
F192758.0
sg16
F0.0
sg17
F0.0
sg18
F0.0
sg19
F0.0
sg20
I00
sg21
F0.0
sg22
F55097.0
sg23
F0.0
sg24
F0.0
ssS'MURRAY JULIA H'
p354
(dp355
g3
F229284.0
sg4
F2192.0
sg5
F0.0
sg6
F812194.0
sg7
F0.0
sg8
F400000.0
sg9
S'julia.murray@enron.com'
p356
sg11
F0.0
sg12
F597461.0
sg13
F395.0
sg14
F125000.0
sg15
F400478.0
sg16
F45.0
sg17
F330.0
sg18
F11.0
sg19
F2.0
sg20
I00
sg21
F0.0
sg22
F57580.0
sg23
F196983.0
sg24
F0.0
ssS'GARLAND C KEVIN'
p357
(dp358
g3
F231946.0
sg4
F209.0
sg5
F0.0
sg6
F1566469.0
sg7
F0.0
sg8
F850000.0
sg9
S'kevin.garland@enron.com'
p359
sg11
F0.0
sg12
F896153.0
sg13
F178.0
sg14
F375304.0
sg15
F636246.0
sg16
F44.0
sg17
F60814.0
sg18
F10.0
sg19
F27.0
sg20
I00
sg21
F0.0
sg22
F48405.0
sg23
F259907.0
sg24
F0.0
ssS'DODSON KEITH'
p360
(dp361
g3
F221003.0
sg4
F176.0
sg5
F0.0
sg6
F319941.0
sg7
F0.0
sg8
F70000.0
sg9
S'keith.dodson@enron.com'
p362
sg11
F0.0
sg12
F0.0
sg13
F114.0
sg14
F0.0
sg15
F0.0
sg16
F14.0
sg17
F774.0
sg18
F10.0
sg19
F3.0
sg20
I00
sg21
F0.0
sg22
F28164.0
sg23
F0.0
sg24
F0.0
ssS'YEAGER F SCOTT'
p363
(dp364
g3
F158403.0
sg4
F0.0
sg5
F0.0
sg6
F360300.0
sg7
F0.0
sg8
F0.0
sg9
S'scott.yeager@enron.com'
p365
sg11
F0.0
sg12
F11884758.0
sg13
F0.0
sg14
F0.0
sg15
F8308552.0
sg16
F0.0
sg17
F147950.0
sg18
F0.0
sg19
F0.0
sg20
I01
sg21
F0.0
sg22
F53947.0
sg23
F3576206.0
sg24
F0.0
ssS'HIRKO JOSEPH'
p366
(dp367
g3
F0.0
sg4
F0.0
sg5
F10259.0
sg6
F91093.0
sg7
F0.0
sg8
F0.0
sg9
S'joe.hirko@enron.com'
p368
sg11
F0.0
sg12
F30766064.0
sg13
F0.0
sg14
F0.0
sg15
F30766064.0
sg16
F0.0
sg17
F2856.0
sg18
F0.0
sg19
F0.0
sg20
I01
sg21
F0.0
sg22
F77978.0
sg23
F0.0
sg24
F0.0
ssS'DIETRICH JANET R'
p369
(dp370
g3
F250100.0
sg4
F2572.0
sg5
F0.0
sg6
F1410464.0
sg7
F0.0
sg8
F600000.0
sg9
S'janet.dietrich@enron.com'
p371
sg11
F0.0
sg12
F1865087.0
sg13
F1902.0
sg14
F556416.0
sg15
F1550019.0
sg16
F63.0
sg17
F473.0
sg18
F305.0
sg19
F14.0
sg20
I00
sg21
F0.0
sg22
F3475.0
sg23
F315068.0
sg24
F0.0
ssS'DERRICK JR. JAMES V'
p372
(dp373
g3
F492375.0
sg4
F2181.0
sg5
F0.0
sg6
F550981.0
sg7
F0.0
sg8
F800000.0
sg9
S'james.derrick@enron.com'
p374
sg11
F-1787380.0
sg12
F8831913.0
sg13
F1401.0
sg14
F484000.0
sg15
F8831913.0
sg16
F909.0
sg17
F7482.0
sg18
F64.0
sg19
F20.0
sg20
I00
sg21
F-1284000.0
sg22
F51124.0
sg23
F1787380.0
sg24
F0.0
ssS'FREVERT MARK A'
p375
(dp376
g3
F1060932.0
sg4
F3275.0
sg5
F6426990.0
sg6
F17252530.0
sg7
F2000000.0
sg8
F2000000.0
sg9
S'mark.frevert@enron.com'
p377
sg11
F0.0
sg12
F14622185.0
sg13
F2979.0
sg14
F1617011.0
sg15
F10433518.0
sg16
F21.0
sg17
F7427621.0
sg18
F242.0
sg19
F6.0
sg20
I00
sg21
F-3367011.0
sg22
F86987.0
sg23
F4188667.0
sg24
F0.0
ssS'PAI LOU L'
p378
(dp379
g3
F261879.0
sg4
F0.0
sg5
F0.0
sg6
F3123383.0
sg7
F0.0
sg8
F1000000.0
sg9
S'lou.pai@enron.com'
p380
sg11
F0.0
sg12
F23817930.0
sg13
F0.0
sg14
F0.0
sg15
F15364167.0
sg16
F0.0
sg17
F1829457.0
sg18
F0.0
sg19
F0.0
sg20
I00
sg21
F0.0
sg22
F32047.0
sg23
F8453763.0
sg24
F0.0
ssS'BAY FRANKLIN R'
p381
(dp382
g3
F239671.0
sg4
F0.0
sg5
F260455.0
sg6
F827696.0
sg7
F0.0
sg8
F400000.0
sg9
S'frank.bay@enron.com'
p383
sg11
F-82782.0
sg12
F63014.0
sg13
F0.0
sg14
F0.0
sg15
F0.0
sg16
F0.0
sg17
F69.0
sg18
F0.0
sg19
F0.0
sg20
I00
sg21
F-201641.0
sg22
F129142.0
sg23
F145796.0
sg24
F0.0
ssS'HAYSLETT RODERICK J'
p384
(dp385
g3
F0.0
sg4
F2649.0
sg5
F0.0
sg6
F0.0
sg7
F0.0
sg8
F0.0
sg9
S'rod.hayslett@enron.com'
p386
sg11
F0.0
sg12
F346663.0
sg13
F571.0
sg14
F0.0
sg15
F0.0
sg16
F1061.0
sg17
F0.0
sg18
F35.0
sg19
F38.0
sg20
I00
sg21
F0.0
sg22
F0.0
sg23
F346663.0
sg24
F0.0
ssS'FUGH JOHN L'
p387
(dp388
g3
F0.0
sg4
F0.0
sg5
F50591.0
sg6
F50591.0
sg7
F0.0
sg8
F0.0
sg9
I0
sg11
F0.0
sg12
F176378.0
sg13
F0.0
sg14
F0.0
sg15
F176378.0
sg16
F0.0
sg17
F0.0
sg18
F0.0
sg19
F0.0
sg20
I00
sg21
F0.0
sg22
F0.0
sg23
F0.0
sg24
F0.0
ssS'FALLON JAMES B'
p389
(dp390
g3
F304588.0
sg4
F1755.0
sg5
F0.0
sg6
F3676340.0
sg7
F0.0
sg8
F2500000.0
sg9
S'jim.fallon@enron.com'
p391
sg11
F0.0
sg12
F2332399.0
sg13
F1604.0
sg14
F374347.0
sg15
F940257.0
sg16
F75.0
sg17
F401481.0
sg18
F42.0
sg19
F37.0
sg20
I00
sg21
F0.0
sg22
F95924.0
sg23
F1392142.0
sg24
F0.0
ssS'KOENIG MARK E'
p392
(dp393
g3
F309946.0
sg4
F2374.0
sg5
F0.0
sg6
F1587421.0
sg7
F0.0
sg8
F700000.0
sg9
S'mark.koenig@enron.com'
p394
sg11
F0.0
sg12
F1920055.0
sg13
F2271.0
sg14
F300000.0
sg15
F671737.0
sg16
F61.0
sg17
F150458.0
sg18
F53.0
sg19
F15.0
sg20
I01
sg21
F0.0
sg22
F127017.0
sg23
F1248318.0
sg24
F0.0
ssS'SAVAGE FRANK'
p395
(dp396
g3
F0.0
sg4
F0.0
sg5
F0.0
sg6
F3750.0
sg7
F0.0
sg8
F0.0
sg9
I0
sg11
F0.0
sg12
F0.0
sg13
F0.0
sg14
F0.0
sg15
F0.0
sg16
F0.0
sg17
F0.0
sg18
F0.0
sg19
F0.0
sg20
I00
sg21
F-121284.0
sg22
F0.0
sg23
F0.0
sg24
F125034.0
ssS'IZZO LAWRENCE L'
p397
(dp398
g3
F85274.0
sg4
F496.0
sg5
F0.0
sg6
F1979596.0
sg7
F0.0
sg8
F0.0
sg9
S'larry.izzo@enron.com'
p399
sg11
F0.0
sg12
F5819980.0
sg13
F437.0
sg14
F312500.0
sg15
F2165172.0
sg16
F19.0
sg17
F1553729.0
sg18
F28.0
sg19
F5.0
sg20
I00
sg21
F0.0
sg22
F28093.0
sg23
F3654808.0
sg24
F0.0
ssS'TILNEY ELIZABETH A'
p400
(dp401
g3
F247338.0
sg4
F460.0
sg5
F0.0
sg6
F399393.0
sg7
F0.0
sg8
F300000.0
sg9
S'elizabeth.tilney@enron.com'
p402
sg11
F0.0
sg12
F1168042.0
sg13
F379.0
sg14
F275000.0
sg15
F591250.0
sg16
F19.0
sg17
F152055.0
sg18
F10.0
sg19
F11.0
sg20
I00
sg21
F-575000.0
sg22
F0.0
sg23
F576792.0
sg24
F0.0
ssS'MARTIN AMANDA K'
p403
(dp404
g3
F349487.0
sg4
F1522.0
sg5
F85430.0
sg6
F8407016.0
sg7
F0.0
sg8
F0.0
sg9
S'a..martin@enron.com'
p405
sg11
F0.0
sg12
F2070306.0
sg13
F477.0
sg14
F5145434.0
sg15
F2070306.0
sg16
F230.0
sg17
F2818454.0
sg18
F8.0
sg19
F0.0
sg20
I00
sg21
F0.0
sg22
F8211.0
sg23
F0.0
sg24
F0.0
ssS'BUY RICHARD B'
p406
(dp407
g3
F330546.0
sg4
F3523.0
sg5
F649584.0
sg6
F2355702.0
sg7
F0.0
sg8
F900000.0
sg9
S'rick.buy@enron.com'
p408
sg11
F0.0
sg12
F3444470.0
sg13
F2333.0
sg14
F769862.0
sg15
F2542813.0
sg16
F1053.0
sg17
F400572.0
sg18
F156.0
sg19
F71.0
sg20
I00
sg21
F-694862.0
sg22
F0.0
sg23
F901657.0
sg24
F0.0
ssS'GRAMM WENDY L'
p409
(dp410
g3
F0.0
sg4
F0.0
sg5
F0.0
sg6
F119292.0
sg7
F0.0
sg8
F0.0
sg9
I0
sg11
F0.0
sg12
F0.0
sg13
F0.0
sg14
F0.0
sg15
F0.0
sg16
F0.0
sg17
F0.0
sg18
F0.0
sg19
F0.0
sg20
I00
sg21
F0.0
sg22
F0.0
sg23
F0.0
sg24
F119292.0
ssS'CAUSEY RICHARD A'
p411
(dp412
g3
F415189.0
sg4
F1892.0
sg5
F0.0
sg6
F1868758.0
sg7
F0.0
sg8
F1000000.0
sg9
S'richard.causey@enron.com'
p413
sg11
F0.0
sg12
F2502063.0
sg13
F1585.0
sg14
F350000.0
sg15
F0.0
sg16
F49.0
sg17
F307895.0
sg18
F58.0
sg19
F12.0
sg20
I01
sg21
F-235000.0
sg22
F30674.0
sg23
F2502063.0
sg24
F0.0
ssS'TAYLOR MITCHELL S'
p414
(dp415
g3
F265214.0
sg4
F533.0
sg5
F227449.0
sg6
F1092663.0
sg7
F0.0
sg8
F600000.0
sg9
S'mitchell.taylor@enron.com'
p416
sg11
F0.0
sg12
F3745048.0
sg13
F300.0
sg14
F0.0
sg15
F3181250.0
sg16
F29.0
sg17
F0.0
sg18
F0.0
sg19
F0.0
sg20
I00
sg21
F0.0
sg22
F0.0
sg23
F563798.0
sg24
F0.0
ssS'DONAHUE JR JEFFREY M'
p417
(dp418
g3
F278601.0
sg4
F865.0
sg5
F0.0
sg6
F875760.0
sg7
F0.0
sg8
F800000.0
sg9
S'jeff.donahue@enron.com'
p419
sg11
F0.0
sg12
F1080988.0
sg13
F772.0
sg14
F0.0
sg15
F765920.0
sg16
F22.0
sg17
F891.0
sg18
F188.0
sg19
F11.0
sg20
I00
sg21
F-300000.0
sg22
F96268.0
sg23
F315068.0
sg24
F0.0
ssS'GLISAN JR BEN F'
p420
(dp421
g3
F274975.0
sg4
F873.0
sg5
F0.0
sg6
F1272284.0
sg7
F0.0
sg8
F600000.0
sg9
S'ben.glisan@enron.com'
p422
sg11
F0.0
sg12
F778546.0
sg13
F874.0
sg14
F71023.0
sg15
F384728.0
sg16
F16.0
sg17
F200308.0
sg18
F52.0
sg19
F6.0
sg20
I01
sg21
F0.0
sg22
F125978.0
sg23
F393818.0
sg24
F0.0
ss.